---
triple:          'arm64-apple-darwin'
binary-path:     matmul_generate
relocations:
  - { offsetInCU: 0x220D3, offset: 0x220D3, size: 0x8, addend: 0x0, symName: __ZNSt3__124__put_character_sequenceB8ue170006IcNS_11char_traitsIcEEEERNS_13basic_ostreamIT_T0_EES7_PKS4_m, symObjAddr: 0x274C, symBinAddr: 0x100003088, symSize: 0x1EC }
  - { offsetInCU: 0x2486D, offset: 0x2486D, size: 0x8, addend: 0x0, symName: __ZNSt3__1lsB8ue170006INS_11char_traitsIcEEEERNS_13basic_ostreamIcT_EES6_PKc, symObjAddr: 0x2704, symBinAddr: 0x100003040, symSize: 0x48 }
  - { offsetInCU: 0x248B3, offset: 0x248B3, size: 0x8, addend: 0x0, symName: __ZNSt3__116__pad_and_outputB8ue170006IcNS_11char_traitsIcEEEENS_19ostreambuf_iteratorIT_T0_EES6_PKS4_S8_S8_RNS_8ios_baseES4_, symObjAddr: 0x2988, symBinAddr: 0x1000032C4, symSize: 0x240 }
  - { offsetInCU: 0x24982, offset: 0x24982, size: 0x8, addend: 0x0, symName: __ZNSt3__112__to_addressB8ue170006IcEEPT_S2_, symObjAddr: 0x2EF0, symBinAddr: 0x10000382C, symSize: 0x14 }
  - { offsetInCU: 0x249EA, offset: 0x249EA, size: 0x8, addend: 0x0, symName: __ZNSt3__19use_facetB8ue170006INS_5ctypeIcEEEERKT_RKNS_6localeE, symObjAddr: 0x31A8, symBinAddr: 0x100003AE4, symSize: 0x2C }
  - { offsetInCU: 0x24EB7, offset: 0x24EB7, size: 0x8, addend: 0x0, symName: __ZNSt3__118__constexpr_strlenB8ue170006EPKc, symObjAddr: 0x3240, symBinAddr: 0x100003B7C, symSize: 0x24 }
  - { offsetInCU: 0x24EE3, offset: 0x24EE3, size: 0x8, addend: 0x0, symName: __ZNSt3__122__cxx_atomic_fetch_addB8ue170006IiEET_PNS_22__cxx_atomic_base_implIS1_EES1_NS_12memory_orderE, symObjAddr: 0x3348, symBinAddr: 0x100003C84, symSize: 0xC4 }
  - { offsetInCU: 0x24F38, offset: 0x24F38, size: 0x8, addend: 0x0, symName: __ZNSt3__122__cxx_atomic_fetch_subB8ue170006IiEET_PNS_22__cxx_atomic_base_implIS1_EES1_NS_12memory_orderE, symObjAddr: 0x35E0, symBinAddr: 0x100003F1C, symSize: 0xD8 }
  - { offsetInCU: 0x24F8D, offset: 0x24F8D, size: 0x8, addend: 0x0, symName: __ZNSt3__112__to_addressB8ue170006IN6Halide3VarEEEPT_S4_, symObjAddr: 0x3AF0, symBinAddr: 0x10000442C, symSize: 0x14 }
  - { offsetInCU: 0x24FC2, offset: 0x24FC2, size: 0x8, addend: 0x0, symName: __ZNSt3__119__libcpp_deallocateB8ue170006EPvmm, symObjAddr: 0x3BDC, symBinAddr: 0x100004518, symSize: 0x60 }
  - { offsetInCU: 0x25027, offset: 0x25027, size: 0x8, addend: 0x0, symName: __ZNSt3__124__is_overaligned_for_newB8ue170006Em, symObjAddr: 0x3C3C, symBinAddr: 0x100004578, symSize: 0x20 }
  - { offsetInCU: 0x25055, offset: 0x25055, size: 0x8, addend: 0x0, symName: __ZNSt3__127__do_deallocate_handle_sizeB8ue170006IJSt11align_val_tEEEvPvmDpT_, symObjAddr: 0x3C5C, symBinAddr: 0x100004598, symSize: 0x30 }
  - { offsetInCU: 0x250A8, offset: 0x250A8, size: 0x8, addend: 0x0, symName: __ZNSt3__127__do_deallocate_handle_sizeB8ue170006IJEEEvPvmDpT_, symObjAddr: 0x3C8C, symBinAddr: 0x1000045C8, symSize: 0x28 }
  - { offsetInCU: 0x250E6, offset: 0x250E6, size: 0x8, addend: 0x0, symName: __ZNSt3__124__libcpp_operator_deleteB8ue170006IJPvSt11align_val_tEEEvDpT_, symObjAddr: 0x3CB4, symBinAddr: 0x1000045F0, symSize: 0x2C }
  - { offsetInCU: 0x2512F, offset: 0x2512F, size: 0x8, addend: 0x0, symName: __ZNSt3__124__libcpp_operator_deleteB8ue170006IJPvEEEvDpT_, symObjAddr: 0x3CE0, symBinAddr: 0x10000461C, symSize: 0x24 }
  - { offsetInCU: 0x25164, offset: 0x25164, size: 0x8, addend: 0x0, symName: __ZNSt3__112__to_addressB8ue170006IN6Halide4ExprEEEPT_S4_, symObjAddr: 0x4394, symBinAddr: 0x100004CD0, symSize: 0x14 }
  - { offsetInCU: 0x25199, offset: 0x25199, size: 0x8, addend: 0x0, symName: __ZNSt3__112__to_addressB8ue170006IN6Halide5RangeEEEPT_S4_, symObjAddr: 0x4E08, symBinAddr: 0x100005744, symSize: 0x14 }
  - { offsetInCU: 0x251CE, offset: 0x251CE, size: 0x8, addend: 0x0, symName: __ZNSt3__13maxB8ue170006ImEERKT_S3_S3_, symObjAddr: 0x5D80, symBinAddr: 0x1000066BC, symSize: 0x2C }
  - { offsetInCU: 0x25211, offset: 0x25211, size: 0x8, addend: 0x0, symName: __ZNSt3__13minB8ue170006ImEERKT_S3_S3_, symObjAddr: 0x5DAC, symBinAddr: 0x1000066E8, symSize: 0x2C }
  - { offsetInCU: 0x2543E, offset: 0x2543E, size: 0x8, addend: 0x0, symName: __ZNSt3__13minB8ue170006ImNS_6__lessIvvEEEERKT_S5_S5_T0_, symObjAddr: 0x5E38, symBinAddr: 0x100006774, symSize: 0x54 }
  - { offsetInCU: 0x254DD, offset: 0x254DD, size: 0x8, addend: 0x0, symName: __ZNSt3__120__throw_length_errorB8ue170006EPKc, symObjAddr: 0x5F14, symBinAddr: 0x100006850, symSize: 0x64 }
  - { offsetInCU: 0x25507, offset: 0x25507, size: 0x8, addend: 0x0, symName: __ZNSt3__13maxB8ue170006ImNS_6__lessIvvEEEERKT_S5_S5_T0_, symObjAddr: 0x5FF8, symBinAddr: 0x100006934, symSize: 0x54 }
  - { offsetInCU: 0x25561, offset: 0x25561, size: 0x8, addend: 0x0, symName: __ZNSt3__119__allocate_at_leastB8ue170006INS_9allocatorIN6Halide5RangeEEEEENS_19__allocation_resultINS_16allocator_traitsIT_E7pointerEEERS7_m, symObjAddr: 0x615C, symBinAddr: 0x100006A98, symSize: 0x40 }
  - { offsetInCU: 0x255A4, offset: 0x255A4, size: 0x8, addend: 0x0, symName: __ZNSt3__117__libcpp_allocateB8ue170006Emm, symObjAddr: 0x62E0, symBinAddr: 0x100006C1C, symSize: 0x60 }
  - { offsetInCU: 0x255FE, offset: 0x255FE, size: 0x8, addend: 0x0, symName: __ZNSt3__121__libcpp_operator_newB8ue170006IJmSt11align_val_tEEEPvDpT_, symObjAddr: 0x6340, symBinAddr: 0x100006C7C, symSize: 0x2C }
  - { offsetInCU: 0x2564B, offset: 0x2564B, size: 0x8, addend: 0x0, symName: __ZNSt3__121__libcpp_operator_newB8ue170006IJmEEEPvDpT_, symObjAddr: 0x636C, symBinAddr: 0x100006CA8, symSize: 0x24 }
  - { offsetInCU: 0x25684, offset: 0x25684, size: 0x8, addend: 0x0, symName: __ZNSt3__142__uninitialized_allocator_move_if_noexceptB8ue170006INS_9allocatorIN6Halide5RangeEEENS_16reverse_iteratorIPS3_EES7_S7_EET2_RT_T0_T1_S8_, symObjAddr: 0x63F4, symBinAddr: 0x100006D30, symSize: 0x12C }
  - { offsetInCU: 0x25724, offset: 0x25724, size: 0x8, addend: 0x0, symName: __ZNSt3__14swapB8ue170006IPN6Halide5RangeEEENS_9enable_ifIXaasr21is_move_constructibleIT_EE5valuesr18is_move_assignableIS5_EE5valueEvE4typeERS5_S8_, symObjAddr: 0x656C, symBinAddr: 0x100006EA8, symSize: 0x3C }
  - { offsetInCU: 0x25775, offset: 0x25775, size: 0x8, addend: 0x0, symName: __ZNSt3__122__make_exception_guardB8ue170006INS_29_AllocatorDestroyRangeReverseINS_9allocatorIN6Halide5RangeEEENS_16reverse_iteratorIPS4_EEEEEENS_28__exception_guard_exceptionsIT_EESB_, symObjAddr: 0x6654, symBinAddr: 0x100006F90, symSize: 0x4C }
  - { offsetInCU: 0x257AB, offset: 0x257AB, size: 0x8, addend: 0x0, symName: __ZNSt3__1neB8ue170006IPN6Halide5RangeES3_EEbRKNS_16reverse_iteratorIT_EERKNS4_IT0_EE, symObjAddr: 0x66E4, symBinAddr: 0x100007020, symSize: 0x48 }
  - { offsetInCU: 0x257F7, offset: 0x257F7, size: 0x8, addend: 0x0, symName: __ZNSt3__112__to_addressB8ue170006INS_16reverse_iteratorIPN6Halide5RangeEEEvEEu7__decayIDTclsr19__to_address_helperIT_EE6__callclsr3stdE7declvalIRKS6_EEEEES8_, symObjAddr: 0x6760, symBinAddr: 0x10000709C, symSize: 0x24 }
  - { offsetInCU: 0x25856, offset: 0x25856, size: 0x8, addend: 0x0, symName: __ZNSt3__119__allocator_destroyB8ue170006INS_9allocatorIN6Halide5RangeEEENS_16reverse_iteratorINS5_IPS3_EEEES8_EEvRT_T0_T1_, symObjAddr: 0x6B60, symBinAddr: 0x10000749C, symSize: 0x70 }
  - { offsetInCU: 0x258BB, offset: 0x258BB, size: 0x8, addend: 0x0, symName: __ZNSt3__1neB8ue170006INS_16reverse_iteratorIPN6Halide5RangeEEES5_EEbRKNS1_IT_EERKNS1_IT0_EE, symObjAddr: 0x6C0C, symBinAddr: 0x100007548, symSize: 0x60 }
  - { offsetInCU: 0x25907, offset: 0x25907, size: 0x8, addend: 0x0, symName: __ZNSt3__112__to_addressB8ue170006INS_16reverse_iteratorINS1_IPN6Halide5RangeEEEEEvEEu7__decayIDTclsr19__to_address_helperIT_EE6__callclsr3stdE7declvalIRKS7_EEEEES9_, symObjAddr: 0x6C6C, symBinAddr: 0x1000075A8, symSize: 0x24 }
  - { offsetInCU: 0x25966, offset: 0x25966, size: 0x8, addend: 0x0, symName: __ZNSt3__122__make_exception_guardB8ue170006INS_6vectorIN6Halide3VarENS_9allocatorIS3_EEE16__destroy_vectorEEENS_28__exception_guard_exceptionsIT_EES9_, symObjAddr: 0x71A0, symBinAddr: 0x100007ADC, symSize: 0x40 }
  - { offsetInCU: 0x2599B, offset: 0x2599B, size: 0x8, addend: 0x0, symName: __ZNSt3__119__allocate_at_leastB8ue170006INS_9allocatorIN6Halide3VarEEEEENS_19__allocation_resultINS_16allocator_traitsIT_E7pointerEEERS7_m, symObjAddr: 0x754C, symBinAddr: 0x100007E88, symSize: 0x40 }
  - { offsetInCU: 0x259DE, offset: 0x259DE, size: 0x8, addend: 0x0, symName: __ZNSt3__130__uninitialized_allocator_copyB8ue170006INS_9allocatorIN6Halide3VarEEEPKS3_S6_PS3_EET2_RT_T0_T1_S8_, symObjAddr: 0x77C4, symBinAddr: 0x100008100, symSize: 0x80 }
  - { offsetInCU: 0x25A7B, offset: 0x25A7B, size: 0x8, addend: 0x0, symName: __ZNSt3__114__unwrap_rangeB8ue170006IPKN6Halide3VarES4_EENS_4pairIT0_S6_EET_S8_, symObjAddr: 0x78B4, symBinAddr: 0x1000081F0, symSize: 0x60 }
  - { offsetInCU: 0x25AC7, offset: 0x25AC7, size: 0x8, addend: 0x0, symName: __ZNSt3__135__uninitialized_allocator_copy_implB8ue170006INS_9allocatorIN6Halide3VarEEEPKS3_S6_PS3_EET2_RT_T0_T1_S8_, symObjAddr: 0x7914, symBinAddr: 0x100008250, symSize: 0xF4 }
  - { offsetInCU: 0x25B65, offset: 0x25B65, size: 0x8, addend: 0x0, symName: __ZNSt3__113__unwrap_iterB8ue170006IPN6Halide3VarENS_18__unwrap_iter_implIS3_Lb1EEELi0EEEDTclsrT0_8__unwrapclsr3stdE7declvalIT_EEEES7_, symObjAddr: 0x7A08, symBinAddr: 0x100008344, symSize: 0x24 }
  - { offsetInCU: 0x25BA9, offset: 0x25BA9, size: 0x8, addend: 0x0, symName: __ZNSt3__113__rewrap_iterB8ue170006IPN6Halide3VarES3_NS_18__unwrap_iter_implIS3_Lb1EEEEET_S6_T0_, symObjAddr: 0x7A2C, symBinAddr: 0x100008368, symSize: 0x3C }
  - { offsetInCU: 0x25BFE, offset: 0x25BFE, size: 0x8, addend: 0x0, symName: __ZNSt3__19make_pairB8ue170006IPKN6Halide3VarES4_EENS_4pairINS_18__unwrap_ref_decayIT_E4typeENS6_IT0_E4typeEEEOS7_OSA_, symObjAddr: 0x7A68, symBinAddr: 0x1000083A4, symSize: 0x38 }
  - { offsetInCU: 0x25C4D, offset: 0x25C4D, size: 0x8, addend: 0x0, symName: __ZNSt3__113__unwrap_iterB8ue170006IPKN6Halide3VarENS_18__unwrap_iter_implIS4_Lb1EEELi0EEEDTclsrT0_8__unwrapclsr3stdE7declvalIT_EEEES8_, symObjAddr: 0x7AA0, symBinAddr: 0x1000083DC, symSize: 0x24 }
  - { offsetInCU: 0x25DB8, offset: 0x25DB8, size: 0x8, addend: 0x0, symName: __ZNSt3__112__to_addressB8ue170006IKN6Halide3VarEEEPT_S5_, symObjAddr: 0x7B58, symBinAddr: 0x100008494, symSize: 0x14 }
  - { offsetInCU: 0x25DED, offset: 0x25DED, size: 0x8, addend: 0x0, symName: __ZNSt3__122__make_exception_guardB8ue170006INS_29_AllocatorDestroyRangeReverseINS_9allocatorIN6Halide3VarEEEPS4_EEEENS_28__exception_guard_exceptionsIT_EES9_, symObjAddr: 0x7B6C, symBinAddr: 0x1000084A8, symSize: 0x4C }
  - { offsetInCU: 0x25E23, offset: 0x25E23, size: 0x8, addend: 0x0, symName: __ZNSt3__119__allocator_destroyB8ue170006INS_9allocatorIN6Halide3VarEEENS_16reverse_iteratorIPS3_EES7_EEvRT_T0_T1_, symObjAddr: 0x7DFC, symBinAddr: 0x100008738, symSize: 0x70 }
  - { offsetInCU: 0x25E86, offset: 0x25E86, size: 0x8, addend: 0x0, symName: __ZNSt3__1neB8ue170006IPN6Halide3VarES3_EEbRKNS_16reverse_iteratorIT_EERKNS4_IT0_EE, symObjAddr: 0x7EA0, symBinAddr: 0x1000087DC, symSize: 0x48 }
  - { offsetInCU: 0x25ED2, offset: 0x25ED2, size: 0x8, addend: 0x0, symName: __ZNSt3__112__to_addressB8ue170006INS_16reverse_iteratorIPN6Halide3VarEEEvEEu7__decayIDTclsr19__to_address_helperIT_EE6__callclsr3stdE7declvalIRKS6_EEEEES8_, symObjAddr: 0x7EE8, symBinAddr: 0x100008824, symSize: 0x24 }
  - { offsetInCU: 0x25F84, offset: 0x25F84, size: 0x8, addend: 0x0, symName: __ZNSt3__130__uninitialized_allocator_copyB8ue170006INS_9allocatorIN6Halide3VarEEEPS3_S5_S5_EET2_RT_T0_T1_S6_, symObjAddr: 0x834C, symBinAddr: 0x100008C88, symSize: 0x80 }
  - { offsetInCU: 0x26021, offset: 0x26021, size: 0x8, addend: 0x0, symName: __ZNSt3__114__unwrap_rangeB8ue170006IPN6Halide3VarES3_EENS_4pairIT0_S5_EET_S7_, symObjAddr: 0x83CC, symBinAddr: 0x100008D08, symSize: 0x60 }
  - { offsetInCU: 0x2606D, offset: 0x2606D, size: 0x8, addend: 0x0, symName: __ZNSt3__135__uninitialized_allocator_copy_implB8ue170006INS_9allocatorIN6Halide3VarEEEPS3_S5_S5_EET2_RT_T0_T1_S6_, symObjAddr: 0x842C, symBinAddr: 0x100008D68, symSize: 0xF4 }
  - { offsetInCU: 0x2610B, offset: 0x2610B, size: 0x8, addend: 0x0, symName: __ZNSt3__19make_pairB8ue170006IPN6Halide3VarES3_EENS_4pairINS_18__unwrap_ref_decayIT_E4typeENS5_IT0_E4typeEEEOS6_OS9_, symObjAddr: 0x8520, symBinAddr: 0x100008E5C, symSize: 0x38 }
  - { offsetInCU: 0x2622E, offset: 0x2622E, size: 0x8, addend: 0x0, symName: __ZNSt3__122__make_exception_guardB8ue170006INS_6vectorIN6Halide4ExprENS_9allocatorIS3_EEE16__destroy_vectorEEENS_28__exception_guard_exceptionsIT_EES9_, symObjAddr: 0x8A1C, symBinAddr: 0x100009358, symSize: 0x40 }
  - { offsetInCU: 0x26263, offset: 0x26263, size: 0x8, addend: 0x0, symName: __ZNSt3__119__allocate_at_leastB8ue170006INS_9allocatorIN6Halide4ExprEEEEENS_19__allocation_resultINS_16allocator_traitsIT_E7pointerEEERS7_m, symObjAddr: 0x8DC8, symBinAddr: 0x100009704, symSize: 0x40 }
  - { offsetInCU: 0x262A6, offset: 0x262A6, size: 0x8, addend: 0x0, symName: __ZNSt3__130__uninitialized_allocator_copyB8ue170006INS_9allocatorIN6Halide4ExprEEEPKS3_S6_PS3_EET2_RT_T0_T1_S8_, symObjAddr: 0x9040, symBinAddr: 0x10000997C, symSize: 0x80 }
  - { offsetInCU: 0x26343, offset: 0x26343, size: 0x8, addend: 0x0, symName: __ZNSt3__114__unwrap_rangeB8ue170006IPKN6Halide4ExprES4_EENS_4pairIT0_S6_EET_S8_, symObjAddr: 0x9130, symBinAddr: 0x100009A6C, symSize: 0x60 }
  - { offsetInCU: 0x2638F, offset: 0x2638F, size: 0x8, addend: 0x0, symName: __ZNSt3__135__uninitialized_allocator_copy_implB8ue170006INS_9allocatorIN6Halide4ExprEEEPKS3_S6_PS3_EET2_RT_T0_T1_S8_, symObjAddr: 0x9190, symBinAddr: 0x100009ACC, symSize: 0xF4 }
  - { offsetInCU: 0x2642D, offset: 0x2642D, size: 0x8, addend: 0x0, symName: __ZNSt3__113__unwrap_iterB8ue170006IPN6Halide4ExprENS_18__unwrap_iter_implIS3_Lb1EEELi0EEEDTclsrT0_8__unwrapclsr3stdE7declvalIT_EEEES7_, symObjAddr: 0x9284, symBinAddr: 0x100009BC0, symSize: 0x24 }
  - { offsetInCU: 0x26471, offset: 0x26471, size: 0x8, addend: 0x0, symName: __ZNSt3__113__rewrap_iterB8ue170006IPN6Halide4ExprES3_NS_18__unwrap_iter_implIS3_Lb1EEEEET_S6_T0_, symObjAddr: 0x92A8, symBinAddr: 0x100009BE4, symSize: 0x3C }
  - { offsetInCU: 0x264C6, offset: 0x264C6, size: 0x8, addend: 0x0, symName: __ZNSt3__19make_pairB8ue170006IPKN6Halide4ExprES4_EENS_4pairINS_18__unwrap_ref_decayIT_E4typeENS6_IT0_E4typeEEEOS7_OSA_, symObjAddr: 0x92E4, symBinAddr: 0x100009C20, symSize: 0x38 }
  - { offsetInCU: 0x26515, offset: 0x26515, size: 0x8, addend: 0x0, symName: __ZNSt3__113__unwrap_iterB8ue170006IPKN6Halide4ExprENS_18__unwrap_iter_implIS4_Lb1EEELi0EEEDTclsrT0_8__unwrapclsr3stdE7declvalIT_EEEES8_, symObjAddr: 0x931C, symBinAddr: 0x100009C58, symSize: 0x24 }
  - { offsetInCU: 0x26680, offset: 0x26680, size: 0x8, addend: 0x0, symName: __ZNSt3__112__to_addressB8ue170006IKN6Halide4ExprEEEPT_S5_, symObjAddr: 0x93D4, symBinAddr: 0x100009D10, symSize: 0x14 }
  - { offsetInCU: 0x266B5, offset: 0x266B5, size: 0x8, addend: 0x0, symName: __ZNSt3__122__make_exception_guardB8ue170006INS_29_AllocatorDestroyRangeReverseINS_9allocatorIN6Halide4ExprEEEPS4_EEEENS_28__exception_guard_exceptionsIT_EES9_, symObjAddr: 0x93E8, symBinAddr: 0x100009D24, symSize: 0x4C }
  - { offsetInCU: 0x266EB, offset: 0x266EB, size: 0x8, addend: 0x0, symName: __ZNSt3__119__allocator_destroyB8ue170006INS_9allocatorIN6Halide4ExprEEENS_16reverse_iteratorIPS3_EES7_EEvRT_T0_T1_, symObjAddr: 0x9678, symBinAddr: 0x100009FB4, symSize: 0x70 }
  - { offsetInCU: 0x2674E, offset: 0x2674E, size: 0x8, addend: 0x0, symName: __ZNSt3__1neB8ue170006IPN6Halide4ExprES3_EEbRKNS_16reverse_iteratorIT_EERKNS4_IT0_EE, symObjAddr: 0x971C, symBinAddr: 0x10000A058, symSize: 0x48 }
  - { offsetInCU: 0x2679A, offset: 0x2679A, size: 0x8, addend: 0x0, symName: __ZNSt3__112__to_addressB8ue170006INS_16reverse_iteratorIPN6Halide4ExprEEEvEEu7__decayIDTclsr19__to_address_helperIT_EE6__callclsr3stdE7declvalIRKS6_EEEEES8_, symObjAddr: 0x9764, symBinAddr: 0x10000A0A0, symSize: 0x24 }
  - { offsetInCU: 0x2684C, offset: 0x2684C, size: 0x8, addend: 0x0, symName: __ZNSt3__130__uninitialized_allocator_copyB8ue170006INS_9allocatorIN6Halide4ExprEEEPS3_S5_S5_EET2_RT_T0_T1_S6_, symObjAddr: 0x9BC8, symBinAddr: 0x10000A504, symSize: 0x80 }
  - { offsetInCU: 0x268E9, offset: 0x268E9, size: 0x8, addend: 0x0, symName: __ZNSt3__114__unwrap_rangeB8ue170006IPN6Halide4ExprES3_EENS_4pairIT0_S5_EET_S7_, symObjAddr: 0x9C48, symBinAddr: 0x10000A584, symSize: 0x60 }
  - { offsetInCU: 0x26935, offset: 0x26935, size: 0x8, addend: 0x0, symName: __ZNSt3__135__uninitialized_allocator_copy_implB8ue170006INS_9allocatorIN6Halide4ExprEEEPS3_S5_S5_EET2_RT_T0_T1_S6_, symObjAddr: 0x9CA8, symBinAddr: 0x10000A5E4, symSize: 0xF4 }
  - { offsetInCU: 0x269D3, offset: 0x269D3, size: 0x8, addend: 0x0, symName: __ZNSt3__19make_pairB8ue170006IPN6Halide4ExprES3_EENS_4pairINS_18__unwrap_ref_decayIT_E4typeENS5_IT0_E4typeEEEOS6_OS9_, symObjAddr: 0x9D9C, symBinAddr: 0x10000A6D8, symSize: 0x38 }
  - { offsetInCU: 0x26AF6, offset: 0x26AF6, size: 0x8, addend: 0x0, symName: __ZNSt3__122__make_exception_guardB8ue170006INS_6vectorIN6Halide9VarOrRVarENS_9allocatorIS3_EEE16__destroy_vectorEEENS_28__exception_guard_exceptionsIT_EES9_, symObjAddr: 0xA3FC, symBinAddr: 0x10000AD38, symSize: 0x40 }
  - { offsetInCU: 0x26B2B, offset: 0x26B2B, size: 0x8, addend: 0x0, symName: __ZNSt3__119__allocate_at_leastB8ue170006INS_9allocatorIN6Halide9VarOrRVarEEEEENS_19__allocation_resultINS_16allocator_traitsIT_E7pointerEEERS7_m, symObjAddr: 0xA80C, symBinAddr: 0x10000B148, symSize: 0x40 }
  - { offsetInCU: 0x26B6E, offset: 0x26B6E, size: 0x8, addend: 0x0, symName: __ZNSt3__112__to_addressB8ue170006IN6Halide9VarOrRVarEEEPT_S4_, symObjAddr: 0xAB5C, symBinAddr: 0x10000B498, symSize: 0x14 }
  - { offsetInCU: 0x26BA3, offset: 0x26BA3, size: 0x8, addend: 0x0, symName: __ZNSt3__130__uninitialized_allocator_copyB8ue170006INS_9allocatorIN6Halide9VarOrRVarEEEPKS3_S6_PS3_EET2_RT_T0_T1_S8_, symObjAddr: 0xAC0C, symBinAddr: 0x10000B548, symSize: 0x80 }
  - { offsetInCU: 0x26C40, offset: 0x26C40, size: 0x8, addend: 0x0, symName: __ZNSt3__114__unwrap_rangeB8ue170006IPKN6Halide9VarOrRVarES4_EENS_4pairIT0_S6_EET_S8_, symObjAddr: 0xAD04, symBinAddr: 0x10000B640, symSize: 0x60 }
  - { offsetInCU: 0x26C8C, offset: 0x26C8C, size: 0x8, addend: 0x0, symName: __ZNSt3__135__uninitialized_allocator_copy_implB8ue170006INS_9allocatorIN6Halide9VarOrRVarEEEPKS3_S6_PS3_EET2_RT_T0_T1_S8_, symObjAddr: 0xAD64, symBinAddr: 0x10000B6A0, symSize: 0xF4 }
  - { offsetInCU: 0x26D2A, offset: 0x26D2A, size: 0x8, addend: 0x0, symName: __ZNSt3__113__unwrap_iterB8ue170006IPN6Halide9VarOrRVarENS_18__unwrap_iter_implIS3_Lb1EEELi0EEEDTclsrT0_8__unwrapclsr3stdE7declvalIT_EEEES7_, symObjAddr: 0xAE58, symBinAddr: 0x10000B794, symSize: 0x24 }
  - { offsetInCU: 0x26D6E, offset: 0x26D6E, size: 0x8, addend: 0x0, symName: __ZNSt3__113__rewrap_iterB8ue170006IPN6Halide9VarOrRVarES3_NS_18__unwrap_iter_implIS3_Lb1EEEEET_S6_T0_, symObjAddr: 0xAE7C, symBinAddr: 0x10000B7B8, symSize: 0x3C }
  - { offsetInCU: 0x26DC3, offset: 0x26DC3, size: 0x8, addend: 0x0, symName: __ZNSt3__19make_pairB8ue170006IPKN6Halide9VarOrRVarES4_EENS_4pairINS_18__unwrap_ref_decayIT_E4typeENS6_IT0_E4typeEEEOS7_OSA_, symObjAddr: 0xAEB8, symBinAddr: 0x10000B7F4, symSize: 0x38 }
  - { offsetInCU: 0x26E12, offset: 0x26E12, size: 0x8, addend: 0x0, symName: __ZNSt3__113__unwrap_iterB8ue170006IPKN6Halide9VarOrRVarENS_18__unwrap_iter_implIS4_Lb1EEELi0EEEDTclsrT0_8__unwrapclsr3stdE7declvalIT_EEEES8_, symObjAddr: 0xAEF0, symBinAddr: 0x10000B82C, symSize: 0x24 }
  - { offsetInCU: 0x26F7D, offset: 0x26F7D, size: 0x8, addend: 0x0, symName: __ZNSt3__112__to_addressB8ue170006IKN6Halide9VarOrRVarEEEPT_S5_, symObjAddr: 0xAFA8, symBinAddr: 0x10000B8E4, symSize: 0x14 }
  - { offsetInCU: 0x26FB2, offset: 0x26FB2, size: 0x8, addend: 0x0, symName: __ZNSt3__122__make_exception_guardB8ue170006INS_29_AllocatorDestroyRangeReverseINS_9allocatorIN6Halide9VarOrRVarEEEPS4_EEEENS_28__exception_guard_exceptionsIT_EES9_, symObjAddr: 0xAFBC, symBinAddr: 0x10000B8F8, symSize: 0x4C }
  - { offsetInCU: 0x26FE8, offset: 0x26FE8, size: 0x8, addend: 0x0, symName: __ZNSt3__119__allocator_destroyB8ue170006INS_9allocatorIN6Halide9VarOrRVarEEENS_16reverse_iteratorIPS3_EES7_EEvRT_T0_T1_, symObjAddr: 0xB24C, symBinAddr: 0x10000BB88, symSize: 0x70 }
  - { offsetInCU: 0x2704B, offset: 0x2704B, size: 0x8, addend: 0x0, symName: __ZNSt3__1neB8ue170006IPN6Halide9VarOrRVarES3_EEbRKNS_16reverse_iteratorIT_EERKNS4_IT0_EE, symObjAddr: 0xB2F0, symBinAddr: 0x10000BC2C, symSize: 0x48 }
  - { offsetInCU: 0x27097, offset: 0x27097, size: 0x8, addend: 0x0, symName: __ZNSt3__112__to_addressB8ue170006INS_16reverse_iteratorIPN6Halide9VarOrRVarEEEvEEu7__decayIDTclsr19__to_address_helperIT_EE6__callclsr3stdE7declvalIRKS6_EEEEES8_, symObjAddr: 0xB364, symBinAddr: 0x10000BCA0, symSize: 0x24 }
  - { offsetInCU: 0x27149, offset: 0x27149, size: 0x8, addend: 0x0, symName: __ZNSt3__122__make_exception_guardB8ue170006INS_6vectorIN6Halide8ArgumentENS_9allocatorIS3_EEE16__destroy_vectorEEENS_28__exception_guard_exceptionsIT_EES9_, symObjAddr: 0xB9D4, symBinAddr: 0x10000C310, symSize: 0x40 }
  - { offsetInCU: 0x2717E, offset: 0x2717E, size: 0x8, addend: 0x0, symName: __ZNSt3__119__allocate_at_leastB8ue170006INS_9allocatorIN6Halide8ArgumentEEEEENS_19__allocation_resultINS_16allocator_traitsIT_E7pointerEEERS7_m, symObjAddr: 0xBDE4, symBinAddr: 0x10000C720, symSize: 0x40 }
  - { offsetInCU: 0x271C1, offset: 0x271C1, size: 0x8, addend: 0x0, symName: __ZNSt3__112__to_addressB8ue170006IN6Halide8ArgumentEEEPT_S4_, symObjAddr: 0xC134, symBinAddr: 0x10000CA70, symSize: 0x14 }
  - { offsetInCU: 0x271F6, offset: 0x271F6, size: 0x8, addend: 0x0, symName: __ZNSt3__130__uninitialized_allocator_copyB8ue170006INS_9allocatorIN6Halide8ArgumentEEEPKS3_S6_PS3_EET2_RT_T0_T1_S8_, symObjAddr: 0xC1E4, symBinAddr: 0x10000CB20, symSize: 0x80 }
  - { offsetInCU: 0x27293, offset: 0x27293, size: 0x8, addend: 0x0, symName: __ZNSt3__114__unwrap_rangeB8ue170006IPKN6Halide8ArgumentES4_EENS_4pairIT0_S6_EET_S8_, symObjAddr: 0xC2DC, symBinAddr: 0x10000CC18, symSize: 0x60 }
  - { offsetInCU: 0x272DF, offset: 0x272DF, size: 0x8, addend: 0x0, symName: __ZNSt3__135__uninitialized_allocator_copy_implB8ue170006INS_9allocatorIN6Halide8ArgumentEEEPKS3_S6_PS3_EET2_RT_T0_T1_S8_, symObjAddr: 0xC33C, symBinAddr: 0x10000CC78, symSize: 0xF4 }
  - { offsetInCU: 0x2737D, offset: 0x2737D, size: 0x8, addend: 0x0, symName: __ZNSt3__113__unwrap_iterB8ue170006IPN6Halide8ArgumentENS_18__unwrap_iter_implIS3_Lb1EEELi0EEEDTclsrT0_8__unwrapclsr3stdE7declvalIT_EEEES7_, symObjAddr: 0xC430, symBinAddr: 0x10000CD6C, symSize: 0x24 }
  - { offsetInCU: 0x273C1, offset: 0x273C1, size: 0x8, addend: 0x0, symName: __ZNSt3__113__rewrap_iterB8ue170006IPN6Halide8ArgumentES3_NS_18__unwrap_iter_implIS3_Lb1EEEEET_S6_T0_, symObjAddr: 0xC454, symBinAddr: 0x10000CD90, symSize: 0x3C }
  - { offsetInCU: 0x27416, offset: 0x27416, size: 0x8, addend: 0x0, symName: __ZNSt3__19make_pairB8ue170006IPKN6Halide8ArgumentES4_EENS_4pairINS_18__unwrap_ref_decayIT_E4typeENS6_IT0_E4typeEEEOS7_OSA_, symObjAddr: 0xC490, symBinAddr: 0x10000CDCC, symSize: 0x38 }
  - { offsetInCU: 0x27465, offset: 0x27465, size: 0x8, addend: 0x0, symName: __ZNSt3__113__unwrap_iterB8ue170006IPKN6Halide8ArgumentENS_18__unwrap_iter_implIS4_Lb1EEELi0EEEDTclsrT0_8__unwrapclsr3stdE7declvalIT_EEEES8_, symObjAddr: 0xC4C8, symBinAddr: 0x10000CE04, symSize: 0x24 }
  - { offsetInCU: 0x275D0, offset: 0x275D0, size: 0x8, addend: 0x0, symName: __ZNSt3__112__to_addressB8ue170006IKN6Halide8ArgumentEEEPT_S5_, symObjAddr: 0xC580, symBinAddr: 0x10000CEBC, symSize: 0x14 }
  - { offsetInCU: 0x27605, offset: 0x27605, size: 0x8, addend: 0x0, symName: __ZNSt3__122__make_exception_guardB8ue170006INS_29_AllocatorDestroyRangeReverseINS_9allocatorIN6Halide8ArgumentEEEPS4_EEEENS_28__exception_guard_exceptionsIT_EES9_, symObjAddr: 0xC594, symBinAddr: 0x10000CED0, symSize: 0x4C }
  - { offsetInCU: 0x2763B, offset: 0x2763B, size: 0x8, addend: 0x0, symName: __ZNSt3__122__make_exception_guardB8ue170006INS_6vectorIN6Halide5RangeENS_9allocatorIS3_EEE16__destroy_vectorEEENS_28__exception_guard_exceptionsIT_EES9_, symObjAddr: 0xCB50, symBinAddr: 0x10000D48C, symSize: 0x40 }
  - { offsetInCU: 0x27670, offset: 0x27670, size: 0x8, addend: 0x0, symName: __ZNSt3__130__uninitialized_allocator_copyB8ue170006INS_9allocatorIN6Halide5RangeEEEPS3_S5_S5_EET2_RT_T0_T1_S6_, symObjAddr: 0xCD68, symBinAddr: 0x10000D6A4, symSize: 0x80 }
  - { offsetInCU: 0x2770D, offset: 0x2770D, size: 0x8, addend: 0x0, symName: __ZNSt3__114__unwrap_rangeB8ue170006IPN6Halide5RangeES3_EENS_4pairIT0_S5_EET_S7_, symObjAddr: 0xCDE8, symBinAddr: 0x10000D724, symSize: 0x60 }
  - { offsetInCU: 0x27759, offset: 0x27759, size: 0x8, addend: 0x0, symName: __ZNSt3__135__uninitialized_allocator_copy_implB8ue170006INS_9allocatorIN6Halide5RangeEEEPS3_S5_S5_EET2_RT_T0_T1_S6_, symObjAddr: 0xCE48, symBinAddr: 0x10000D784, symSize: 0xF4 }
  - { offsetInCU: 0x277F7, offset: 0x277F7, size: 0x8, addend: 0x0, symName: __ZNSt3__113__unwrap_iterB8ue170006IPN6Halide5RangeENS_18__unwrap_iter_implIS3_Lb1EEELi0EEEDTclsrT0_8__unwrapclsr3stdE7declvalIT_EEEES7_, symObjAddr: 0xCF3C, symBinAddr: 0x10000D878, symSize: 0x24 }
  - { offsetInCU: 0x2783B, offset: 0x2783B, size: 0x8, addend: 0x0, symName: __ZNSt3__113__rewrap_iterB8ue170006IPN6Halide5RangeES3_NS_18__unwrap_iter_implIS3_Lb1EEEEET_S6_T0_, symObjAddr: 0xCF60, symBinAddr: 0x10000D89C, symSize: 0x3C }
  - { offsetInCU: 0x27890, offset: 0x27890, size: 0x8, addend: 0x0, symName: __ZNSt3__19make_pairB8ue170006IPN6Halide5RangeES3_EENS_4pairINS_18__unwrap_ref_decayIT_E4typeENS5_IT0_E4typeEEEOS6_OS9_, symObjAddr: 0xCF9C, symBinAddr: 0x10000D8D8, symSize: 0x38 }
  - { offsetInCU: 0x279B3, offset: 0x279B3, size: 0x8, addend: 0x0, symName: __ZNSt3__122__make_exception_guardB8ue170006INS_29_AllocatorDestroyRangeReverseINS_9allocatorIN6Halide5RangeEEEPS4_EEEENS_28__exception_guard_exceptionsIT_EES9_, symObjAddr: 0xD044, symBinAddr: 0x10000D980, symSize: 0x4C }
  - { offsetInCU: 0x279E9, offset: 0x279E9, size: 0x8, addend: 0x0, symName: __ZNSt3__119__allocator_destroyB8ue170006INS_9allocatorIN6Halide5RangeEEENS_16reverse_iteratorIPS3_EES7_EEvRT_T0_T1_, symObjAddr: 0xD350, symBinAddr: 0x10000DC8C, symSize: 0x70 }
  - { offsetInCU: 0x27A9F, offset: 0x27A9F, size: 0x8, addend: 0x0, symName: __ZNSt3__119__allocator_destroyB8ue170006INS_9allocatorIN6Halide8ArgumentEEENS_16reverse_iteratorIPS3_EES7_EEvRT_T0_T1_, symObjAddr: 0xD534, symBinAddr: 0x10000DE70, symSize: 0x70 }
  - { offsetInCU: 0x27B02, offset: 0x27B02, size: 0x8, addend: 0x0, symName: __ZNSt3__1neB8ue170006IPN6Halide8ArgumentES3_EEbRKNS_16reverse_iteratorIT_EERKNS4_IT0_EE, symObjAddr: 0xD5D8, symBinAddr: 0x10000DF14, symSize: 0x48 }
  - { offsetInCU: 0x27B4E, offset: 0x27B4E, size: 0x8, addend: 0x0, symName: __ZNSt3__112__to_addressB8ue170006INS_16reverse_iteratorIPN6Halide8ArgumentEEEvEEu7__decayIDTclsr19__to_address_helperIT_EE6__callclsr3stdE7declvalIRKS6_EEEEES8_, symObjAddr: 0xD64C, symBinAddr: 0x10000DF88, symSize: 0x24 }
  - { offsetInCU: 0x28985, offset: 0x28985, size: 0x8, addend: 0x0, symName: __ZSt28__throw_bad_array_new_lengthB8ue170006v, symObjAddr: 0x62AC, symBinAddr: 0x100006BE8, symSize: 0x34 }
  - { offsetInCU: 0x30265, offset: 0x30265, size: 0x8, addend: 0x0, symName: __ZN6Halide8Internal9ref_countINS0_6IRNodeEEERNS0_8RefCountEPKT_, symObjAddr: 0x32A8, symBinAddr: 0x100003BE4, symSize: 0x18 }
  - { offsetInCU: 0x3029C, offset: 0x3029C, size: 0x8, addend: 0x0, symName: __ZN6Halide8Internal7destroyINS0_6IRNodeEEEvPKT_, symObjAddr: 0x3534, symBinAddr: 0x100003E70, symSize: 0x48 }
  - { offsetInCU: 0x37411, offset: 0x37411, size: 0x8, addend: 0x0, symName: __ZN6Halide7type_ofIfEENS_4TypeEv, symObjAddr: 0x17D0, symBinAddr: 0x10000210C, symSize: 0xBC }
  - { offsetInCU: 0x37734, offset: 0x37734, size: 0x8, addend: 0x0, symName: __ZN6Halide3IntEii, symObjAddr: 0x2248, symBinAddr: 0x100002B84, symSize: 0x40 }
  - { offsetInCU: 0x3C393, offset: 0x3C393, size: 0x8, addend: 0x0, symName: __ZNSt3__16vectorIN6Halide5RangeENS_9allocatorIS2_EEE26__swap_out_circular_bufferERNS_14__split_bufferIS2_RS4_EE, symObjAddr: 0x5BC8, symBinAddr: 0x100006504, symSize: 0x110 }
  - { offsetInCU: 0x3E939, offset: 0x3E939, size: 0x8, addend: 0x0, symName: _main, symObjAddr: 0x0, symBinAddr: 0x10000093C, symSize: 0x16F8 }
  - { offsetInCU: 0x3EA59, offset: 0x3EA59, size: 0x8, addend: 0x0, symName: __ZNSt3__112basic_stringIcNS_11char_traitsIcEENS_9allocatorIcEEEC1B8ue170006ILi0EEEPKc, symObjAddr: 0x16F8, symBinAddr: 0x100002034, symSize: 0x34 }
  - { offsetInCU: 0x3EA98, offset: 0x3EA98, size: 0x8, addend: 0x0, symName: __ZN6Halide4ExprC1Ei, symObjAddr: 0x172C, symBinAddr: 0x100002068, symSize: 0x34 }
  - { offsetInCU: 0x3EAEA, offset: 0x3EAEA, size: 0x8, addend: 0x0, symName: __ZN6Halide4RDomC1IJRA2_KcEEENS_4ExprES5_DpOT_, symObjAddr: 0x1760, symBinAddr: 0x10000209C, symSize: 0x44 }
  - { offsetInCU: 0x3EB4E, offset: 0x3EB4E, size: 0x8, addend: 0x0, symName: __ZN6Halide4ExprD1Ev, symObjAddr: 0x17A4, symBinAddr: 0x1000020E0, symSize: 0x2C }
  - { offsetInCU: 0x3ECA4, offset: 0x3ECA4, size: 0x8, addend: 0x0, symName: __ZNK6Halide10ImageParamclIJRNS_3VarERNS_4RDomEEEENS_4ExprEDpOT_, symObjAddr: 0x188C, symBinAddr: 0x1000021C8, symSize: 0x90 }
  - { offsetInCU: 0x3ECF8, offset: 0x3ECF8, size: 0x8, addend: 0x0, symName: __ZNK6Halide10ImageParamclIJRNS_4RDomERNS_3VarEEEENS_4ExprEDpOT_, symObjAddr: 0x191C, symBinAddr: 0x100002258, symSize: 0xBC }
  - { offsetInCU: 0x3ED4C, offset: 0x3ED4C, size: 0x8, addend: 0x0, symName: __ZNK6Halide4FuncclIJRNS_3VarES3_EEENSt3__19enable_ifIXsr8Internal19all_are_convertibleIS2_DpT_EE5valueENS_7FuncRefEE4typeEDpOS6_, symObjAddr: 0x19D8, symBinAddr: 0x100002314, symSize: 0x1B4 }
  - { offsetInCU: 0x3EDB0, offset: 0x3EDB0, size: 0x8, addend: 0x0, symName: __ZN6Halide5StageD1Ev, symObjAddr: 0x1B8C, symBinAddr: 0x1000024C8, symSize: 0x2C }
  - { offsetInCU: 0x3EDDD, offset: 0x3EDDD, size: 0x8, addend: 0x0, symName: __ZN6Halide7FuncRefD1Ev, symObjAddr: 0x1BB8, symBinAddr: 0x1000024F4, symSize: 0x2C }
  - { offsetInCU: 0x3EE0A, offset: 0x3EE0A, size: 0x8, addend: 0x0, symName: __ZN6Halide9VarOrRVarC1ERKNS_3VarE, symObjAddr: 0x1BE4, symBinAddr: 0x100002520, symSize: 0x34 }
  - { offsetInCU: 0x3EE43, offset: 0x3EE43, size: 0x8, addend: 0x0, symName: __ZN6Halide4Func7reorderIJRNS_3VarES3_EEENSt3__19enable_ifIXsr8Internal19all_are_convertibleINS_9VarOrRVarEDpT_EE5valueERS0_E4typeERKS6_SD_DpOS7_, symObjAddr: 0x1C18, symBinAddr: 0x100002554, symSize: 0x220 }
  - { offsetInCU: 0x3EECA, offset: 0x3EECA, size: 0x8, addend: 0x0, symName: __ZN6Halide9VarOrRVarD1Ev, symObjAddr: 0x1E38, symBinAddr: 0x100002774, symSize: 0x2C }
  - { offsetInCU: 0x3EEF7, offset: 0x3EEF7, size: 0x8, addend: 0x0, symName: __ZN6Halide5Stage7reorderIJRNS_3VarES3_EEENSt3__19enable_ifIXsr8Internal19all_are_convertibleINS_9VarOrRVarEDpT_EE5valueERS0_E4typeERKS6_SD_DpOS7_, symObjAddr: 0x1E64, symBinAddr: 0x1000027A0, symSize: 0x220 }
  - { offsetInCU: 0x3EF7E, offset: 0x3EF7E, size: 0x8, addend: 0x0, symName: __ZN6Halide8ArgumentD1Ev, symObjAddr: 0x2084, symBinAddr: 0x1000029C0, symSize: 0x2C }
  - { offsetInCU: 0x3EFAB, offset: 0x3EFAB, size: 0x8, addend: 0x0, symName: __ZNSt3__16vectorIN6Halide8ArgumentENS_9allocatorIS2_EEEC1B8ue170006ESt16initializer_listIS2_E, symObjAddr: 0x20B0, symBinAddr: 0x1000029EC, symSize: 0x3C }
  - { offsetInCU: 0x3EFE6, offset: 0x3EFE6, size: 0x8, addend: 0x0, symName: __ZNSt3__16vectorIN6Halide8ArgumentENS_9allocatorIS2_EEED1B8ue170006Ev, symObjAddr: 0x20EC, symBinAddr: 0x100002A28, symSize: 0x2C }
  - { offsetInCU: 0x3F010, offset: 0x3F010, size: 0x8, addend: 0x0, symName: __ZN6Halide10ImageParamD1Ev, symObjAddr: 0x2118, symBinAddr: 0x100002A54, symSize: 0x2C }
  - { offsetInCU: 0x3F03D, offset: 0x3F03D, size: 0x8, addend: 0x0, symName: __ZN6Halide4RDomD1Ev, symObjAddr: 0x2144, symBinAddr: 0x100002A80, symSize: 0x2C }
  - { offsetInCU: 0x3F06A, offset: 0x3F06A, size: 0x8, addend: 0x0, symName: __ZN6Halide4FuncD1Ev, symObjAddr: 0x2170, symBinAddr: 0x100002AAC, symSize: 0x2C }
  - { offsetInCU: 0x3F097, offset: 0x3F097, size: 0x8, addend: 0x0, symName: __ZN6Halide3VarD1Ev, symObjAddr: 0x219C, symBinAddr: 0x100002AD8, symSize: 0x2C }
  - { offsetInCU: 0x3F11E, offset: 0x3F11E, size: 0x8, addend: 0x0, symName: __ZN6Halide4ExprC2Ei, symObjAddr: 0x21C8, symBinAddr: 0x100002B04, symSize: 0x80 }
  - { offsetInCU: 0x3F1A9, offset: 0x3F1A9, size: 0x8, addend: 0x0, symName: __ZN6Halide4TypeC1E18halide_type_code_tiiPK28halide_handle_cplusplus_type, symObjAddr: 0x2288, symBinAddr: 0x100002BC4, symSize: 0x4C }
  - { offsetInCU: 0x3F256, offset: 0x3F256, size: 0x8, addend: 0x0, symName: __ZN6Halide4TypeC2E18halide_type_code_tiiPK28halide_handle_cplusplus_type, symObjAddr: 0x22D4, symBinAddr: 0x100002C10, symSize: 0x31C }
  - { offsetInCU: 0x3F3E8, offset: 0x3F3E8, size: 0x8, addend: 0x0, symName: __ZN6Halide8Internal11ErrorReportlsIA59_cEERS1_RKT_, symObjAddr: 0x25F0, symBinAddr: 0x100002F2C, symSize: 0x34 }
  - { offsetInCU: 0x3F426, offset: 0x3F426, size: 0x8, addend: 0x0, symName: __ZN6Halide8Internal11ErrorReportlsIiEERS1_RKT_, symObjAddr: 0x2624, symBinAddr: 0x100002F60, symSize: 0x38 }
  - { offsetInCU: 0x3F47D, offset: 0x3F47D, size: 0x8, addend: 0x0, symName: __ZN6Halide8Internal11ErrorReportlsIA18_cEERS1_RKT_, symObjAddr: 0x265C, symBinAddr: 0x100002F98, symSize: 0x34 }
  - { offsetInCU: 0x3F4D4, offset: 0x3F4D4, size: 0x8, addend: 0x0, symName: __ZN6Halide8Internal11ErrorReportlsIA49_cEERS1_RKT_, symObjAddr: 0x269C, symBinAddr: 0x100002FD8, symSize: 0x34 }
  - { offsetInCU: 0x3F52B, offset: 0x3F52B, size: 0x8, addend: 0x0, symName: __ZN6Halide8Internal11ErrorReportlsIA17_cEERS1_RKT_, symObjAddr: 0x26D0, symBinAddr: 0x10000300C, symSize: 0x34 }
  - { offsetInCU: 0x3F569, offset: 0x3F569, size: 0x8, addend: 0x0, symName: __ZNSt3__111char_traitsIcE6lengthB8ue170006EPKc, symObjAddr: 0x2938, symBinAddr: 0x100003274, symSize: 0x34 }
  - { offsetInCU: 0x3F5AF, offset: 0x3F5AF, size: 0x8, addend: 0x0, symName: __ZNKSt3__113basic_ostreamIcNS_11char_traitsIcEEE6sentrycvbB8ue170006Ev, symObjAddr: 0x296C, symBinAddr: 0x1000032A8, symSize: 0x1C }
  - { offsetInCU: 0x3F5D5, offset: 0x3F5D5, size: 0x8, addend: 0x0, symName: __ZNSt3__119ostreambuf_iteratorIcNS_11char_traitsIcEEEC1B8ue170006ERNS_13basic_ostreamIcS2_EE, symObjAddr: 0x2BC8, symBinAddr: 0x100003504, symSize: 0x34 }
  - { offsetInCU: 0x3F60D, offset: 0x3F60D, size: 0x8, addend: 0x0, symName: __ZNKSt3__18ios_base5flagsB8ue170006Ev, symObjAddr: 0x2BFC, symBinAddr: 0x100003538, symSize: 0x18 }
  - { offsetInCU: 0x3F635, offset: 0x3F635, size: 0x8, addend: 0x0, symName: __ZNKSt3__19basic_iosIcNS_11char_traitsIcEEE4fillB8ue170006Ev, symObjAddr: 0x2C14, symBinAddr: 0x100003550, symSize: 0x64 }
  - { offsetInCU: 0x3F65D, offset: 0x3F65D, size: 0x8, addend: 0x0, symName: __ZNKSt3__119ostreambuf_iteratorIcNS_11char_traitsIcEEE6failedB8ue170006Ev, symObjAddr: 0x2C78, symBinAddr: 0x1000035B4, symSize: 0x24 }
  - { offsetInCU: 0x3F683, offset: 0x3F683, size: 0x8, addend: 0x0, symName: __ZNSt3__19basic_iosIcNS_11char_traitsIcEEE8setstateB8ue170006Ej, symObjAddr: 0x2C9C, symBinAddr: 0x1000035D8, symSize: 0x2C }
  - { offsetInCU: 0x3F6B8, offset: 0x3F6B8, size: 0x8, addend: 0x0, symName: __ZNKSt3__18ios_base5widthB8ue170006Ev, symObjAddr: 0x2CC8, symBinAddr: 0x100003604, symSize: 0x18 }
  - { offsetInCU: 0x3F6E0, offset: 0x3F6E0, size: 0x8, addend: 0x0, symName: __ZNSt3__115basic_streambufIcNS_11char_traitsIcEEE5sputnB8ue170006EPKcl, symObjAddr: 0x2CE0, symBinAddr: 0x10000361C, symSize: 0x3C }
  - { offsetInCU: 0x3F722, offset: 0x3F722, size: 0x8, addend: 0x0, symName: __ZNSt3__112basic_stringIcNS_11char_traitsIcEENS_9allocatorIcEEEC1B8ue170006Emc, symObjAddr: 0x2D1C, symBinAddr: 0x100003658, symSize: 0x3C }
  - { offsetInCU: 0x3F76A, offset: 0x3F76A, size: 0x8, addend: 0x0, symName: __ZNSt3__112basic_stringIcNS_11char_traitsIcEENS_9allocatorIcEEE4dataB8ue170006Ev, symObjAddr: 0x2D58, symBinAddr: 0x100003694, symSize: 0x28 }
  - { offsetInCU: 0x3F790, offset: 0x3F790, size: 0x8, addend: 0x0, symName: __ZNSt3__18ios_base5widthB8ue170006El, symObjAddr: 0x2D80, symBinAddr: 0x1000036BC, symSize: 0x2C }
  - { offsetInCU: 0x3F7D6, offset: 0x3F7D6, size: 0x8, addend: 0x0, symName: __ZNSt3__112basic_stringIcNS_11char_traitsIcEENS_9allocatorIcEEEC2B8ue170006Emc, symObjAddr: 0x2DAC, symBinAddr: 0x1000036E8, symSize: 0x4C }
  - { offsetInCU: 0x3F824, offset: 0x3F824, size: 0x8, addend: 0x0, symName: __ZNSt3__117__compressed_pairINS_12basic_stringIcNS_11char_traitsIcEENS_9allocatorIcEEE5__repES5_EC1B8ue170006INS_18__default_init_tagESA_EEOT_OT0_, symObjAddr: 0x2DF8, symBinAddr: 0x100003734, symSize: 0x3C }
  - { offsetInCU: 0x3F87C, offset: 0x3F87C, size: 0x8, addend: 0x0, symName: __ZNSt3__117__compressed_pairINS_12basic_stringIcNS_11char_traitsIcEENS_9allocatorIcEEE5__repES5_EC2B8ue170006INS_18__default_init_tagESA_EEOT_OT0_, symObjAddr: 0x2E34, symBinAddr: 0x100003770, symSize: 0x3C }
  - { offsetInCU: 0x3F8D4, offset: 0x3F8D4, size: 0x8, addend: 0x0, symName: __ZNSt3__122__compressed_pair_elemINS_12basic_stringIcNS_11char_traitsIcEENS_9allocatorIcEEE5__repELi0ELb0EEC2B8ue170006ENS_18__default_init_tagE, symObjAddr: 0x2E70, symBinAddr: 0x1000037AC, symSize: 0x14 }
  - { offsetInCU: 0x3F909, offset: 0x3F909, size: 0x8, addend: 0x0, symName: __ZNSt3__122__compressed_pair_elemINS_9allocatorIcEELi1ELb1EEC2B8ue170006ENS_18__default_init_tagE, symObjAddr: 0x2E84, symBinAddr: 0x1000037C0, symSize: 0x2C }
  - { offsetInCU: 0x3F93E, offset: 0x3F93E, size: 0x8, addend: 0x0, symName: __ZNSt3__19allocatorIcEC2B8ue170006Ev, symObjAddr: 0x2EB0, symBinAddr: 0x1000037EC, symSize: 0x2C }
  - { offsetInCU: 0x3F968, offset: 0x3F968, size: 0x8, addend: 0x0, symName: __ZNSt3__116__non_trivial_ifILb1ENS_9allocatorIcEEEC2B8ue170006Ev, symObjAddr: 0x2EDC, symBinAddr: 0x100003818, symSize: 0x14 }
  - { offsetInCU: 0x3F992, offset: 0x3F992, size: 0x8, addend: 0x0, symName: __ZNSt3__112basic_stringIcNS_11char_traitsIcEENS_9allocatorIcEEE13__get_pointerB8ue170006Ev, symObjAddr: 0x2F04, symBinAddr: 0x100003840, symSize: 0x54 }
  - { offsetInCU: 0x3F9B8, offset: 0x3F9B8, size: 0x8, addend: 0x0, symName: __ZNKSt3__112basic_stringIcNS_11char_traitsIcEENS_9allocatorIcEEE9__is_longB8ue170006Ev, symObjAddr: 0x2F58, symBinAddr: 0x100003894, symSize: 0x38 }
  - { offsetInCU: 0x3F9DE, offset: 0x3F9DE, size: 0x8, addend: 0x0, symName: __ZNSt3__112basic_stringIcNS_11char_traitsIcEENS_9allocatorIcEEE18__get_long_pointerB8ue170006Ev, symObjAddr: 0x2F90, symBinAddr: 0x1000038CC, symSize: 0x28 }
  - { offsetInCU: 0x3FA04, offset: 0x3FA04, size: 0x8, addend: 0x0, symName: __ZNSt3__112basic_stringIcNS_11char_traitsIcEENS_9allocatorIcEEE19__get_short_pointerB8ue170006Ev, symObjAddr: 0x2FB8, symBinAddr: 0x1000038F4, symSize: 0x28 }
  - { offsetInCU: 0x3FA2A, offset: 0x3FA2A, size: 0x8, addend: 0x0, symName: __ZNKSt3__117__compressed_pairINS_12basic_stringIcNS_11char_traitsIcEENS_9allocatorIcEEE5__repES5_E5firstB8ue170006Ev, symObjAddr: 0x2FE0, symBinAddr: 0x10000391C, symSize: 0x24 }
  - { offsetInCU: 0x3FA50, offset: 0x3FA50, size: 0x8, addend: 0x0, symName: __ZNKSt3__122__compressed_pair_elemINS_12basic_stringIcNS_11char_traitsIcEENS_9allocatorIcEEE5__repELi0ELb0EE5__getB8ue170006Ev, symObjAddr: 0x3004, symBinAddr: 0x100003940, symSize: 0x14 }
  - { offsetInCU: 0x3FA76, offset: 0x3FA76, size: 0x8, addend: 0x0, symName: __ZNSt3__117__compressed_pairINS_12basic_stringIcNS_11char_traitsIcEENS_9allocatorIcEEE5__repES5_E5firstB8ue170006Ev, symObjAddr: 0x3018, symBinAddr: 0x100003954, symSize: 0x24 }
  - { offsetInCU: 0x3FA9C, offset: 0x3FA9C, size: 0x8, addend: 0x0, symName: __ZNSt3__122__compressed_pair_elemINS_12basic_stringIcNS_11char_traitsIcEENS_9allocatorIcEEE5__repELi0ELb0EE5__getB8ue170006Ev, symObjAddr: 0x303C, symBinAddr: 0x100003978, symSize: 0x14 }
  - { offsetInCU: 0x3FAC2, offset: 0x3FAC2, size: 0x8, addend: 0x0, symName: __ZNSt3__114pointer_traitsIPcE10pointer_toB8ue170006ERc, symObjAddr: 0x3050, symBinAddr: 0x10000398C, symSize: 0x14 }
  - { offsetInCU: 0x3FAE5, offset: 0x3FAE5, size: 0x8, addend: 0x0, symName: __ZNSt3__119ostreambuf_iteratorIcNS_11char_traitsIcEEEC2B8ue170006ERNS_13basic_ostreamIcS2_EE, symObjAddr: 0x3064, symBinAddr: 0x1000039A0, symSize: 0x54 }
  - { offsetInCU: 0x3FB1D, offset: 0x3FB1D, size: 0x8, addend: 0x0, symName: __ZNKSt3__19basic_iosIcNS_11char_traitsIcEEE5rdbufB8ue170006Ev, symObjAddr: 0x30B8, symBinAddr: 0x1000039F4, symSize: 0x24 }
  - { offsetInCU: 0x3FB45, offset: 0x3FB45, size: 0x8, addend: 0x0, symName: __ZNKSt3__18ios_base5rdbufB8ue170006Ev, symObjAddr: 0x30DC, symBinAddr: 0x100003A18, symSize: 0x18 }
  - { offsetInCU: 0x3FB6B, offset: 0x3FB6B, size: 0x8, addend: 0x0, symName: __ZNSt3__111char_traitsIcE11eq_int_typeB8ue170006Eii, symObjAddr: 0x30F4, symBinAddr: 0x100003A30, symSize: 0x28 }
  - { offsetInCU: 0x3FB9E, offset: 0x3FB9E, size: 0x8, addend: 0x0, symName: __ZNSt3__111char_traitsIcE3eofB8ue170006Ev, symObjAddr: 0x311C, symBinAddr: 0x100003A58, symSize: 0x8 }
  - { offsetInCU: 0x3FBB2, offset: 0x3FBB2, size: 0x8, addend: 0x0, symName: __ZNKSt3__19basic_iosIcNS_11char_traitsIcEEE5widenB8ue170006Ec, symObjAddr: 0x3124, symBinAddr: 0x100003A60, symSize: 0x84 }
  - { offsetInCU: 0x3FC27, offset: 0x3FC27, size: 0x8, addend: 0x0, symName: __ZNKSt3__15ctypeIcE5widenB8ue170006Ec, symObjAddr: 0x31D4, symBinAddr: 0x100003B10, symSize: 0x38 }
  - { offsetInCU: 0x3FC5C, offset: 0x3FC5C, size: 0x8, addend: 0x0, symName: __ZNSt3__18ios_base8setstateB8ue170006Ej, symObjAddr: 0x320C, symBinAddr: 0x100003B48, symSize: 0x34 }
  - { offsetInCU: 0x3FC93, offset: 0x3FC93, size: 0x8, addend: 0x0, symName: __ZN6Halide8Internal12IntrusivePtrIKNS0_6IRNodeEE6increfEPS3_, symObjAddr: 0x3264, symBinAddr: 0x100003BA0, symSize: 0x44 }
  - { offsetInCU: 0x3FCC8, offset: 0x3FCC8, size: 0x8, addend: 0x0, symName: __ZN6Halide8Internal8RefCount9incrementEv, symObjAddr: 0x32C0, symBinAddr: 0x100003BFC, symSize: 0x24 }
  - { offsetInCU: 0x3FCEE, offset: 0x3FCEE, size: 0x8, addend: 0x0, symName: __ZNSt3__113__atomic_baseIiLb1EEppB8ue170006Ev, symObjAddr: 0x32E4, symBinAddr: 0x100003C20, symSize: 0x30 }
  - { offsetInCU: 0x3FD14, offset: 0x3FD14, size: 0x8, addend: 0x0, symName: __ZNSt3__113__atomic_baseIiLb1EE9fetch_addB8ue170006EiNS_12memory_orderE, symObjAddr: 0x3314, symBinAddr: 0x100003C50, symSize: 0x34 }
  - { offsetInCU: 0x3FD56, offset: 0x3FD56, size: 0x8, addend: 0x0, symName: __ZN6Halide4ExprD2Ev, symObjAddr: 0x3420, symBinAddr: 0x100003D5C, symSize: 0x2C }
  - { offsetInCU: 0x3FD83, offset: 0x3FD83, size: 0x8, addend: 0x0, symName: __ZN6Halide8Internal8IRHandleD2Ev, symObjAddr: 0x344C, symBinAddr: 0x100003D88, symSize: 0x2C }
  - { offsetInCU: 0x3FDB0, offset: 0x3FDB0, size: 0x8, addend: 0x0, symName: __ZN6Halide8Internal12IntrusivePtrIKNS0_6IRNodeEED2Ev, symObjAddr: 0x3478, symBinAddr: 0x100003DB4, symSize: 0x38 }
  - { offsetInCU: 0x3FDDA, offset: 0x3FDDA, size: 0x8, addend: 0x0, symName: __ZN6Halide8Internal12IntrusivePtrIKNS0_6IRNodeEE6decrefEPS3_, symObjAddr: 0x34B0, symBinAddr: 0x100003DEC, symSize: 0x60 }
  - { offsetInCU: 0x3FE0F, offset: 0x3FE0F, size: 0x8, addend: 0x0, symName: __ZN6Halide8Internal8RefCount9decrementEv, symObjAddr: 0x3510, symBinAddr: 0x100003E4C, symSize: 0x24 }
  - { offsetInCU: 0x3FE35, offset: 0x3FE35, size: 0x8, addend: 0x0, symName: __ZNSt3__113__atomic_baseIiLb1EEmmB8ue170006Ev, symObjAddr: 0x357C, symBinAddr: 0x100003EB8, symSize: 0x30 }
  - { offsetInCU: 0x3FE5B, offset: 0x3FE5B, size: 0x8, addend: 0x0, symName: __ZNSt3__113__atomic_baseIiLb1EE9fetch_subB8ue170006EiNS_12memory_orderE, symObjAddr: 0x35AC, symBinAddr: 0x100003EE8, symSize: 0x34 }
  - { offsetInCU: 0x3FE9D, offset: 0x3FE9D, size: 0x8, addend: 0x0, symName: __ZN6Halide5StageD2Ev, symObjAddr: 0x36CC, symBinAddr: 0x100004008, symSize: 0x44 }
  - { offsetInCU: 0x3FECA, offset: 0x3FECA, size: 0x8, addend: 0x0, symName: __ZNSt3__16vectorIN6Halide3VarENS_9allocatorIS2_EEED1B8ue170006Ev, symObjAddr: 0x3710, symBinAddr: 0x10000404C, symSize: 0x2C }
  - { offsetInCU: 0x3FEF4, offset: 0x3FEF4, size: 0x8, addend: 0x0, symName: __ZN6Halide8Internal10DefinitionD1Ev, symObjAddr: 0x373C, symBinAddr: 0x100004078, symSize: 0x2C }
  - { offsetInCU: 0x3FF21, offset: 0x3FF21, size: 0x8, addend: 0x0, symName: __ZN6Halide8Internal8FunctionD1Ev, symObjAddr: 0x3768, symBinAddr: 0x1000040A4, symSize: 0x2C }
  - { offsetInCU: 0x3FF4E, offset: 0x3FF4E, size: 0x8, addend: 0x0, symName: __ZNSt3__16vectorIN6Halide3VarENS_9allocatorIS2_EEED2B8ue170006Ev, symObjAddr: 0x3794, symBinAddr: 0x1000040D0, symSize: 0x44 }
  - { offsetInCU: 0x3FF78, offset: 0x3FF78, size: 0x8, addend: 0x0, symName: __ZNSt3__16vectorIN6Halide3VarENS_9allocatorIS2_EEE16__destroy_vectorC1B8ue170006ERS5_, symObjAddr: 0x37D8, symBinAddr: 0x100004114, symSize: 0x34 }
  - { offsetInCU: 0x3FFB1, offset: 0x3FFB1, size: 0x8, addend: 0x0, symName: __ZNSt3__16vectorIN6Halide3VarENS_9allocatorIS2_EEE16__destroy_vectorclB8ue170006Ev, symObjAddr: 0x380C, symBinAddr: 0x100004148, symSize: 0x90 }
  - { offsetInCU: 0x3FFD7, offset: 0x3FFD7, size: 0x8, addend: 0x0, symName: __ZNSt3__16vectorIN6Halide3VarENS_9allocatorIS2_EEE16__destroy_vectorC2B8ue170006ERS5_, symObjAddr: 0x389C, symBinAddr: 0x1000041D8, symSize: 0x20 }
  - { offsetInCU: 0x40010, offset: 0x40010, size: 0x8, addend: 0x0, symName: __ZNSt3__16vectorIN6Halide3VarENS_9allocatorIS2_EEE7__clearB8ue170006Ev, symObjAddr: 0x38BC, symBinAddr: 0x1000041F8, symSize: 0x28 }
  - { offsetInCU: 0x40036, offset: 0x40036, size: 0x8, addend: 0x0, symName: __ZNKSt3__16vectorIN6Halide3VarENS_9allocatorIS2_EEE17__annotate_deleteB8ue170006Ev, symObjAddr: 0x38E4, symBinAddr: 0x100004220, symSize: 0xB8 }
  - { offsetInCU: 0x4005C, offset: 0x4005C, size: 0x8, addend: 0x0, symName: __ZNSt3__116allocator_traitsINS_9allocatorIN6Halide3VarEEEE10deallocateB8ue170006ERS4_PS3_m, symObjAddr: 0x399C, symBinAddr: 0x1000042D8, symSize: 0x34 }
  - { offsetInCU: 0x4009E, offset: 0x4009E, size: 0x8, addend: 0x0, symName: __ZNSt3__16vectorIN6Halide3VarENS_9allocatorIS2_EEE7__allocB8ue170006Ev, symObjAddr: 0x39D0, symBinAddr: 0x10000430C, symSize: 0x28 }
  - { offsetInCU: 0x400C4, offset: 0x400C4, size: 0x8, addend: 0x0, symName: __ZNKSt3__16vectorIN6Halide3VarENS_9allocatorIS2_EEE8capacityB8ue170006Ev, symObjAddr: 0x39F8, symBinAddr: 0x100004334, symSize: 0x40 }
  - { offsetInCU: 0x400EA, offset: 0x400EA, size: 0x8, addend: 0x0, symName: __ZNSt3__16vectorIN6Halide3VarENS_9allocatorIS2_EEE22__base_destruct_at_endB8ue170006EPS2_, symObjAddr: 0x3A38, symBinAddr: 0x100004374, symSize: 0x8C }
  - { offsetInCU: 0x4012E, offset: 0x4012E, size: 0x8, addend: 0x0, symName: __ZNSt3__116allocator_traitsINS_9allocatorIN6Halide3VarEEEE7destroyB8ue170006IS3_vEEvRS4_PT_, symObjAddr: 0x3AC4, symBinAddr: 0x100004400, symSize: 0x2C }
  - { offsetInCU: 0x4016B, offset: 0x4016B, size: 0x8, addend: 0x0, symName: __ZNSt3__19allocatorIN6Halide3VarEE7destroyB8ue170006EPS2_, symObjAddr: 0x3B04, symBinAddr: 0x100004440, symSize: 0x28 }
  - { offsetInCU: 0x4019F, offset: 0x4019F, size: 0x8, addend: 0x0, symName: __ZNKSt3__16vectorIN6Halide3VarENS_9allocatorIS2_EEE31__annotate_contiguous_containerB8ue170006EPKvS7_S7_S7_, symObjAddr: 0x3B2C, symBinAddr: 0x100004468, symSize: 0x20 }
  - { offsetInCU: 0x401F5, offset: 0x401F5, size: 0x8, addend: 0x0, symName: __ZNKSt3__16vectorIN6Halide3VarENS_9allocatorIS2_EEE4dataB8ue170006Ev, symObjAddr: 0x3B4C, symBinAddr: 0x100004488, symSize: 0x28 }
  - { offsetInCU: 0x4021B, offset: 0x4021B, size: 0x8, addend: 0x0, symName: __ZNKSt3__16vectorIN6Halide3VarENS_9allocatorIS2_EEE4sizeB8ue170006Ev, symObjAddr: 0x3B74, symBinAddr: 0x1000044B0, symSize: 0x28 }
  - { offsetInCU: 0x40241, offset: 0x40241, size: 0x8, addend: 0x0, symName: __ZNSt3__19allocatorIN6Halide3VarEE10deallocateB8ue170006EPS2_m, symObjAddr: 0x3B9C, symBinAddr: 0x1000044D8, symSize: 0x40 }
  - { offsetInCU: 0x40283, offset: 0x40283, size: 0x8, addend: 0x0, symName: __ZNSt3__117__compressed_pairIPN6Halide3VarENS_9allocatorIS2_EEE6secondB8ue170006Ev, symObjAddr: 0x3D04, symBinAddr: 0x100004640, symSize: 0x24 }
  - { offsetInCU: 0x402A9, offset: 0x402A9, size: 0x8, addend: 0x0, symName: __ZNSt3__122__compressed_pair_elemINS_9allocatorIN6Halide3VarEEELi1ELb1EE5__getB8ue170006Ev, symObjAddr: 0x3D28, symBinAddr: 0x100004664, symSize: 0x14 }
  - { offsetInCU: 0x402CF, offset: 0x402CF, size: 0x8, addend: 0x0, symName: __ZNKSt3__16vectorIN6Halide3VarENS_9allocatorIS2_EEE9__end_capB8ue170006Ev, symObjAddr: 0x3D3C, symBinAddr: 0x100004678, symSize: 0x28 }
  - { offsetInCU: 0x402F5, offset: 0x402F5, size: 0x8, addend: 0x0, symName: __ZNKSt3__117__compressed_pairIPN6Halide3VarENS_9allocatorIS2_EEE5firstB8ue170006Ev, symObjAddr: 0x3D64, symBinAddr: 0x1000046A0, symSize: 0x24 }
  - { offsetInCU: 0x4031B, offset: 0x4031B, size: 0x8, addend: 0x0, symName: __ZNKSt3__122__compressed_pair_elemIPN6Halide3VarELi0ELb0EE5__getB8ue170006Ev, symObjAddr: 0x3D88, symBinAddr: 0x1000046C4, symSize: 0x14 }
  - { offsetInCU: 0x40341, offset: 0x40341, size: 0x8, addend: 0x0, symName: __ZN6Halide8Internal10DefinitionD2Ev, symObjAddr: 0x3D9C, symBinAddr: 0x1000046D8, symSize: 0x2C }
  - { offsetInCU: 0x4036E, offset: 0x4036E, size: 0x8, addend: 0x0, symName: __ZN6Halide8Internal12IntrusivePtrINS0_18DefinitionContentsEED1Ev, symObjAddr: 0x3DC8, symBinAddr: 0x100004704, symSize: 0x2C }
  - { offsetInCU: 0x40398, offset: 0x40398, size: 0x8, addend: 0x0, symName: __ZN6Halide8Internal12IntrusivePtrINS0_18DefinitionContentsEED2Ev, symObjAddr: 0x3DF4, symBinAddr: 0x100004730, symSize: 0x38 }
  - { offsetInCU: 0x403C2, offset: 0x403C2, size: 0x8, addend: 0x0, symName: __ZN6Halide8Internal12IntrusivePtrINS0_18DefinitionContentsEE6decrefEPS2_, symObjAddr: 0x3E2C, symBinAddr: 0x100004768, symSize: 0x60 }
  - { offsetInCU: 0x403F7, offset: 0x403F7, size: 0x8, addend: 0x0, symName: __ZN6Halide8Internal8FunctionD2Ev, symObjAddr: 0x3E8C, symBinAddr: 0x1000047C8, symSize: 0x2C }
  - { offsetInCU: 0x40424, offset: 0x40424, size: 0x8, addend: 0x0, symName: __ZN6Halide8Internal11FunctionPtrD1Ev, symObjAddr: 0x3EB8, symBinAddr: 0x1000047F4, symSize: 0x2C }
  - { offsetInCU: 0x40451, offset: 0x40451, size: 0x8, addend: 0x0, symName: __ZN6Halide8Internal11FunctionPtrD2Ev, symObjAddr: 0x3EE4, symBinAddr: 0x100004820, symSize: 0x2C }
  - { offsetInCU: 0x4047E, offset: 0x4047E, size: 0x8, addend: 0x0, symName: __ZN6Halide8Internal12IntrusivePtrINS0_13FunctionGroupEED1Ev, symObjAddr: 0x3F10, symBinAddr: 0x10000484C, symSize: 0x2C }
  - { offsetInCU: 0x404A8, offset: 0x404A8, size: 0x8, addend: 0x0, symName: __ZN6Halide8Internal12IntrusivePtrINS0_13FunctionGroupEED2Ev, symObjAddr: 0x3F3C, symBinAddr: 0x100004878, symSize: 0x38 }
  - { offsetInCU: 0x404D2, offset: 0x404D2, size: 0x8, addend: 0x0, symName: __ZN6Halide8Internal12IntrusivePtrINS0_13FunctionGroupEE6decrefEPS2_, symObjAddr: 0x3F74, symBinAddr: 0x1000048B0, symSize: 0x60 }
  - { offsetInCU: 0x40507, offset: 0x40507, size: 0x8, addend: 0x0, symName: __ZN6Halide7FuncRefD2Ev, symObjAddr: 0x3FD4, symBinAddr: 0x100004910, symSize: 0x38 }
  - { offsetInCU: 0x40534, offset: 0x40534, size: 0x8, addend: 0x0, symName: __ZNSt3__16vectorIN6Halide4ExprENS_9allocatorIS2_EEED1B8ue170006Ev, symObjAddr: 0x400C, symBinAddr: 0x100004948, symSize: 0x2C }
  - { offsetInCU: 0x4055E, offset: 0x4055E, size: 0x8, addend: 0x0, symName: __ZNSt3__16vectorIN6Halide4ExprENS_9allocatorIS2_EEED2B8ue170006Ev, symObjAddr: 0x4038, symBinAddr: 0x100004974, symSize: 0x44 }
  - { offsetInCU: 0x40588, offset: 0x40588, size: 0x8, addend: 0x0, symName: __ZNSt3__16vectorIN6Halide4ExprENS_9allocatorIS2_EEE16__destroy_vectorC1B8ue170006ERS5_, symObjAddr: 0x407C, symBinAddr: 0x1000049B8, symSize: 0x34 }
  - { offsetInCU: 0x405C1, offset: 0x405C1, size: 0x8, addend: 0x0, symName: __ZNSt3__16vectorIN6Halide4ExprENS_9allocatorIS2_EEE16__destroy_vectorclB8ue170006Ev, symObjAddr: 0x40B0, symBinAddr: 0x1000049EC, symSize: 0x90 }
  - { offsetInCU: 0x405E7, offset: 0x405E7, size: 0x8, addend: 0x0, symName: __ZNSt3__16vectorIN6Halide4ExprENS_9allocatorIS2_EEE16__destroy_vectorC2B8ue170006ERS5_, symObjAddr: 0x4140, symBinAddr: 0x100004A7C, symSize: 0x20 }
  - { offsetInCU: 0x40620, offset: 0x40620, size: 0x8, addend: 0x0, symName: __ZNSt3__16vectorIN6Halide4ExprENS_9allocatorIS2_EEE7__clearB8ue170006Ev, symObjAddr: 0x4160, symBinAddr: 0x100004A9C, symSize: 0x28 }
  - { offsetInCU: 0x40646, offset: 0x40646, size: 0x8, addend: 0x0, symName: __ZNKSt3__16vectorIN6Halide4ExprENS_9allocatorIS2_EEE17__annotate_deleteB8ue170006Ev, symObjAddr: 0x4188, symBinAddr: 0x100004AC4, symSize: 0xB8 }
  - { offsetInCU: 0x4066C, offset: 0x4066C, size: 0x8, addend: 0x0, symName: __ZNSt3__116allocator_traitsINS_9allocatorIN6Halide4ExprEEEE10deallocateB8ue170006ERS4_PS3_m, symObjAddr: 0x4240, symBinAddr: 0x100004B7C, symSize: 0x34 }
  - { offsetInCU: 0x406AE, offset: 0x406AE, size: 0x8, addend: 0x0, symName: __ZNSt3__16vectorIN6Halide4ExprENS_9allocatorIS2_EEE7__allocB8ue170006Ev, symObjAddr: 0x4274, symBinAddr: 0x100004BB0, symSize: 0x28 }
  - { offsetInCU: 0x406D4, offset: 0x406D4, size: 0x8, addend: 0x0, symName: __ZNKSt3__16vectorIN6Halide4ExprENS_9allocatorIS2_EEE8capacityB8ue170006Ev, symObjAddr: 0x429C, symBinAddr: 0x100004BD8, symSize: 0x40 }
  - { offsetInCU: 0x406FA, offset: 0x406FA, size: 0x8, addend: 0x0, symName: __ZNSt3__16vectorIN6Halide4ExprENS_9allocatorIS2_EEE22__base_destruct_at_endB8ue170006EPS2_, symObjAddr: 0x42DC, symBinAddr: 0x100004C18, symSize: 0x8C }
  - { offsetInCU: 0x4073E, offset: 0x4073E, size: 0x8, addend: 0x0, symName: __ZNSt3__116allocator_traitsINS_9allocatorIN6Halide4ExprEEEE7destroyB8ue170006IS3_vEEvRS4_PT_, symObjAddr: 0x4368, symBinAddr: 0x100004CA4, symSize: 0x2C }
  - { offsetInCU: 0x4077B, offset: 0x4077B, size: 0x8, addend: 0x0, symName: __ZNSt3__19allocatorIN6Halide4ExprEE7destroyB8ue170006EPS2_, symObjAddr: 0x43A8, symBinAddr: 0x100004CE4, symSize: 0x28 }
  - { offsetInCU: 0x407AF, offset: 0x407AF, size: 0x8, addend: 0x0, symName: __ZNKSt3__16vectorIN6Halide4ExprENS_9allocatorIS2_EEE31__annotate_contiguous_containerB8ue170006EPKvS7_S7_S7_, symObjAddr: 0x43D0, symBinAddr: 0x100004D0C, symSize: 0x20 }
  - { offsetInCU: 0x40805, offset: 0x40805, size: 0x8, addend: 0x0, symName: __ZNKSt3__16vectorIN6Halide4ExprENS_9allocatorIS2_EEE4dataB8ue170006Ev, symObjAddr: 0x43F0, symBinAddr: 0x100004D2C, symSize: 0x28 }
  - { offsetInCU: 0x4082B, offset: 0x4082B, size: 0x8, addend: 0x0, symName: __ZNKSt3__16vectorIN6Halide4ExprENS_9allocatorIS2_EEE4sizeB8ue170006Ev, symObjAddr: 0x4418, symBinAddr: 0x100004D54, symSize: 0x28 }
  - { offsetInCU: 0x40851, offset: 0x40851, size: 0x8, addend: 0x0, symName: __ZNSt3__19allocatorIN6Halide4ExprEE10deallocateB8ue170006EPS2_m, symObjAddr: 0x4440, symBinAddr: 0x100004D7C, symSize: 0x40 }
  - { offsetInCU: 0x40893, offset: 0x40893, size: 0x8, addend: 0x0, symName: __ZNSt3__117__compressed_pairIPN6Halide4ExprENS_9allocatorIS2_EEE6secondB8ue170006Ev, symObjAddr: 0x4480, symBinAddr: 0x100004DBC, symSize: 0x24 }
  - { offsetInCU: 0x408B9, offset: 0x408B9, size: 0x8, addend: 0x0, symName: __ZNSt3__122__compressed_pair_elemINS_9allocatorIN6Halide4ExprEEELi1ELb1EE5__getB8ue170006Ev, symObjAddr: 0x44A4, symBinAddr: 0x100004DE0, symSize: 0x14 }
  - { offsetInCU: 0x408DF, offset: 0x408DF, size: 0x8, addend: 0x0, symName: __ZNKSt3__16vectorIN6Halide4ExprENS_9allocatorIS2_EEE9__end_capB8ue170006Ev, symObjAddr: 0x44B8, symBinAddr: 0x100004DF4, symSize: 0x28 }
  - { offsetInCU: 0x40905, offset: 0x40905, size: 0x8, addend: 0x0, symName: __ZNKSt3__117__compressed_pairIPN6Halide4ExprENS_9allocatorIS2_EEE5firstB8ue170006Ev, symObjAddr: 0x44E0, symBinAddr: 0x100004E1C, symSize: 0x24 }
  - { offsetInCU: 0x4092B, offset: 0x4092B, size: 0x8, addend: 0x0, symName: __ZNKSt3__122__compressed_pair_elemIPN6Halide4ExprELi0ELb0EE5__getB8ue170006Ev, symObjAddr: 0x4504, symBinAddr: 0x100004E40, symSize: 0x14 }
  - { offsetInCU: 0x40951, offset: 0x40951, size: 0x8, addend: 0x0, symName: __ZN6Halide9VarOrRVarC2ERKNS_3VarE, symObjAddr: 0x4518, symBinAddr: 0x100004E54, symSize: 0x6C }
  - { offsetInCU: 0x4098A, offset: 0x4098A, size: 0x8, addend: 0x0, symName: __ZN6Halide3VarC1ERKS0_, symObjAddr: 0x4584, symBinAddr: 0x100004EC0, symSize: 0x34 }
  - { offsetInCU: 0x409C0, offset: 0x409C0, size: 0x8, addend: 0x0, symName: __ZN6Halide4RVarC1Ev, symObjAddr: 0x45B8, symBinAddr: 0x100004EF4, symSize: 0x2C }
  - { offsetInCU: 0x409EA, offset: 0x409EA, size: 0x8, addend: 0x0, symName: __ZN6Halide3VarC2ERKS0_, symObjAddr: 0x45E4, symBinAddr: 0x100004F20, symSize: 0x34 }
  - { offsetInCU: 0x40A20, offset: 0x40A20, size: 0x8, addend: 0x0, symName: __ZN6Halide4ExprC1ERKS0_, symObjAddr: 0x4618, symBinAddr: 0x100004F54, symSize: 0x34 }
  - { offsetInCU: 0x40A56, offset: 0x40A56, size: 0x8, addend: 0x0, symName: __ZN6Halide4ExprC2ERKS0_, symObjAddr: 0x464C, symBinAddr: 0x100004F88, symSize: 0x34 }
  - { offsetInCU: 0x40AB9, offset: 0x40AB9, size: 0x8, addend: 0x0, symName: __ZN6Halide8Internal8IRHandleC2ERKS1_, symObjAddr: 0x4680, symBinAddr: 0x100004FBC, symSize: 0x58 }
  - { offsetInCU: 0x40B18, offset: 0x40B18, size: 0x8, addend: 0x0, symName: __ZN6Halide4RVarC2Ev, symObjAddr: 0x46D8, symBinAddr: 0x100005014, symSize: 0x6C }
  - { offsetInCU: 0x40B42, offset: 0x40B42, size: 0x8, addend: 0x0, symName: __ZN6Halide8Internal15ReductionDomainC1Ev, symObjAddr: 0x4744, symBinAddr: 0x100005080, symSize: 0x2C }
  - { offsetInCU: 0x40BC0, offset: 0x40BC0, size: 0x8, addend: 0x0, symName: __ZN6Halide8Internal15ReductionDomainC2Ev, symObjAddr: 0x4770, symBinAddr: 0x1000050AC, symSize: 0x54 }
  - { offsetInCU: 0x40C3C, offset: 0x40C3C, size: 0x8, addend: 0x0, symName: __ZN6Halide8Internal12IntrusivePtrINS0_23ReductionDomainContentsEE6increfEPS2_, symObjAddr: 0x47C4, symBinAddr: 0x100005100, symSize: 0x44 }
  - { offsetInCU: 0x40C71, offset: 0x40C71, size: 0x8, addend: 0x0, symName: __ZN6Halide9VarOrRVarD2Ev, symObjAddr: 0x4808, symBinAddr: 0x100005144, symSize: 0x38 }
  - { offsetInCU: 0x40C9E, offset: 0x40C9E, size: 0x8, addend: 0x0, symName: __ZN6Halide4RVarD1Ev, symObjAddr: 0x4840, symBinAddr: 0x10000517C, symSize: 0x2C }
  - { offsetInCU: 0x40CCB, offset: 0x40CCB, size: 0x8, addend: 0x0, symName: __ZN6Halide4RVarD2Ev, symObjAddr: 0x486C, symBinAddr: 0x1000051A8, symSize: 0x38 }
  - { offsetInCU: 0x40CF8, offset: 0x40CF8, size: 0x8, addend: 0x0, symName: __ZN6Halide8Internal15ReductionDomainD1Ev, symObjAddr: 0x48A4, symBinAddr: 0x1000051E0, symSize: 0x2C }
  - { offsetInCU: 0x40D25, offset: 0x40D25, size: 0x8, addend: 0x0, symName: __ZN6Halide8Internal15ReductionDomainD2Ev, symObjAddr: 0x48D0, symBinAddr: 0x10000520C, symSize: 0x2C }
  - { offsetInCU: 0x40D52, offset: 0x40D52, size: 0x8, addend: 0x0, symName: __ZN6Halide8Internal12IntrusivePtrINS0_23ReductionDomainContentsEED1Ev, symObjAddr: 0x48FC, symBinAddr: 0x100005238, symSize: 0x2C }
  - { offsetInCU: 0x40D7C, offset: 0x40D7C, size: 0x8, addend: 0x0, symName: __ZN6Halide8Internal12IntrusivePtrINS0_23ReductionDomainContentsEED2Ev, symObjAddr: 0x4928, symBinAddr: 0x100005264, symSize: 0x38 }
  - { offsetInCU: 0x40DA6, offset: 0x40DA6, size: 0x8, addend: 0x0, symName: __ZN6Halide8Internal12IntrusivePtrINS0_23ReductionDomainContentsEE6decrefEPS2_, symObjAddr: 0x4960, symBinAddr: 0x10000529C, symSize: 0x60 }
  - { offsetInCU: 0x40DDB, offset: 0x40DDB, size: 0x8, addend: 0x0, symName: __ZN6Halide8ArgumentD2Ev, symObjAddr: 0x49C0, symBinAddr: 0x1000052FC, symSize: 0x38 }
  - { offsetInCU: 0x40E0E, offset: 0x40E0E, size: 0x8, addend: 0x0, symName: __ZN6Halide17ArgumentEstimatesD1Ev, symObjAddr: 0x49F8, symBinAddr: 0x100005334, symSize: 0x2C }
  - { offsetInCU: 0x40E3B, offset: 0x40E3B, size: 0x8, addend: 0x0, symName: __ZN6Halide17ArgumentEstimatesD2Ev, symObjAddr: 0x4A24, symBinAddr: 0x100005360, symSize: 0x5C }
  - { offsetInCU: 0x40E68, offset: 0x40E68, size: 0x8, addend: 0x0, symName: __ZNSt3__16vectorIN6Halide5RangeENS_9allocatorIS2_EEED1B8ue170006Ev, symObjAddr: 0x4A80, symBinAddr: 0x1000053BC, symSize: 0x2C }
  - { offsetInCU: 0x40E92, offset: 0x40E92, size: 0x8, addend: 0x0, symName: __ZNSt3__16vectorIN6Halide5RangeENS_9allocatorIS2_EEED2B8ue170006Ev, symObjAddr: 0x4AAC, symBinAddr: 0x1000053E8, symSize: 0x44 }
  - { offsetInCU: 0x40EBC, offset: 0x40EBC, size: 0x8, addend: 0x0, symName: __ZNSt3__16vectorIN6Halide5RangeENS_9allocatorIS2_EEE16__destroy_vectorC1B8ue170006ERS5_, symObjAddr: 0x4AF0, symBinAddr: 0x10000542C, symSize: 0x34 }
  - { offsetInCU: 0x40EF5, offset: 0x40EF5, size: 0x8, addend: 0x0, symName: __ZNSt3__16vectorIN6Halide5RangeENS_9allocatorIS2_EEE16__destroy_vectorclB8ue170006Ev, symObjAddr: 0x4B24, symBinAddr: 0x100005460, symSize: 0x90 }
  - { offsetInCU: 0x40F1B, offset: 0x40F1B, size: 0x8, addend: 0x0, symName: __ZNSt3__16vectorIN6Halide5RangeENS_9allocatorIS2_EEE16__destroy_vectorC2B8ue170006ERS5_, symObjAddr: 0x4BB4, symBinAddr: 0x1000054F0, symSize: 0x20 }
  - { offsetInCU: 0x40F54, offset: 0x40F54, size: 0x8, addend: 0x0, symName: __ZNSt3__16vectorIN6Halide5RangeENS_9allocatorIS2_EEE7__clearB8ue170006Ev, symObjAddr: 0x4BD4, symBinAddr: 0x100005510, symSize: 0x28 }
  - { offsetInCU: 0x40F7A, offset: 0x40F7A, size: 0x8, addend: 0x0, symName: __ZNKSt3__16vectorIN6Halide5RangeENS_9allocatorIS2_EEE17__annotate_deleteB8ue170006Ev, symObjAddr: 0x4BFC, symBinAddr: 0x100005538, symSize: 0xB8 }
  - { offsetInCU: 0x40FA0, offset: 0x40FA0, size: 0x8, addend: 0x0, symName: __ZNSt3__116allocator_traitsINS_9allocatorIN6Halide5RangeEEEE10deallocateB8ue170006ERS4_PS3_m, symObjAddr: 0x4CB4, symBinAddr: 0x1000055F0, symSize: 0x34 }
  - { offsetInCU: 0x40FE2, offset: 0x40FE2, size: 0x8, addend: 0x0, symName: __ZNSt3__16vectorIN6Halide5RangeENS_9allocatorIS2_EEE7__allocB8ue170006Ev, symObjAddr: 0x4CE8, symBinAddr: 0x100005624, symSize: 0x28 }
  - { offsetInCU: 0x41008, offset: 0x41008, size: 0x8, addend: 0x0, symName: __ZNKSt3__16vectorIN6Halide5RangeENS_9allocatorIS2_EEE8capacityB8ue170006Ev, symObjAddr: 0x4D10, symBinAddr: 0x10000564C, symSize: 0x40 }
  - { offsetInCU: 0x4102E, offset: 0x4102E, size: 0x8, addend: 0x0, symName: __ZNSt3__16vectorIN6Halide5RangeENS_9allocatorIS2_EEE22__base_destruct_at_endB8ue170006EPS2_, symObjAddr: 0x4D50, symBinAddr: 0x10000568C, symSize: 0x8C }
  - { offsetInCU: 0x41072, offset: 0x41072, size: 0x8, addend: 0x0, symName: __ZNSt3__116allocator_traitsINS_9allocatorIN6Halide5RangeEEEE7destroyB8ue170006IS3_vEEvRS4_PT_, symObjAddr: 0x4DDC, symBinAddr: 0x100005718, symSize: 0x2C }
  - { offsetInCU: 0x410AF, offset: 0x410AF, size: 0x8, addend: 0x0, symName: __ZNSt3__19allocatorIN6Halide5RangeEE7destroyB8ue170006EPS2_, symObjAddr: 0x4E1C, symBinAddr: 0x100005758, symSize: 0x28 }
  - { offsetInCU: 0x410E3, offset: 0x410E3, size: 0x8, addend: 0x0, symName: __ZN6Halide5RangeD1Ev, symObjAddr: 0x4E44, symBinAddr: 0x100005780, symSize: 0x2C }
  - { offsetInCU: 0x41110, offset: 0x41110, size: 0x8, addend: 0x0, symName: __ZN6Halide5RangeD2Ev, symObjAddr: 0x4E70, symBinAddr: 0x1000057AC, symSize: 0x38 }
  - { offsetInCU: 0x4113D, offset: 0x4113D, size: 0x8, addend: 0x0, symName: __ZNKSt3__16vectorIN6Halide5RangeENS_9allocatorIS2_EEE31__annotate_contiguous_containerB8ue170006EPKvS7_S7_S7_, symObjAddr: 0x4EA8, symBinAddr: 0x1000057E4, symSize: 0x20 }
  - { offsetInCU: 0x41193, offset: 0x41193, size: 0x8, addend: 0x0, symName: __ZNKSt3__16vectorIN6Halide5RangeENS_9allocatorIS2_EEE4dataB8ue170006Ev, symObjAddr: 0x4EC8, symBinAddr: 0x100005804, symSize: 0x28 }
  - { offsetInCU: 0x411B9, offset: 0x411B9, size: 0x8, addend: 0x0, symName: __ZNKSt3__16vectorIN6Halide5RangeENS_9allocatorIS2_EEE4sizeB8ue170006Ev, symObjAddr: 0x4EF0, symBinAddr: 0x10000582C, symSize: 0x28 }
  - { offsetInCU: 0x411DF, offset: 0x411DF, size: 0x8, addend: 0x0, symName: __ZNSt3__19allocatorIN6Halide5RangeEE10deallocateB8ue170006EPS2_m, symObjAddr: 0x4F18, symBinAddr: 0x100005854, symSize: 0x40 }
  - { offsetInCU: 0x41221, offset: 0x41221, size: 0x8, addend: 0x0, symName: __ZNSt3__117__compressed_pairIPN6Halide5RangeENS_9allocatorIS2_EEE6secondB8ue170006Ev, symObjAddr: 0x4F58, symBinAddr: 0x100005894, symSize: 0x24 }
  - { offsetInCU: 0x41247, offset: 0x41247, size: 0x8, addend: 0x0, symName: __ZNSt3__122__compressed_pair_elemINS_9allocatorIN6Halide5RangeEEELi1ELb1EE5__getB8ue170006Ev, symObjAddr: 0x4F7C, symBinAddr: 0x1000058B8, symSize: 0x14 }
  - { offsetInCU: 0x4126D, offset: 0x4126D, size: 0x8, addend: 0x0, symName: __ZNKSt3__16vectorIN6Halide5RangeENS_9allocatorIS2_EEE9__end_capB8ue170006Ev, symObjAddr: 0x4F90, symBinAddr: 0x1000058CC, symSize: 0x28 }
  - { offsetInCU: 0x41293, offset: 0x41293, size: 0x8, addend: 0x0, symName: __ZNKSt3__117__compressed_pairIPN6Halide5RangeENS_9allocatorIS2_EEE5firstB8ue170006Ev, symObjAddr: 0x4FB8, symBinAddr: 0x1000058F4, symSize: 0x24 }
  - { offsetInCU: 0x412B9, offset: 0x412B9, size: 0x8, addend: 0x0, symName: __ZNKSt3__122__compressed_pair_elemIPN6Halide5RangeELi0ELb0EE5__getB8ue170006Ev, symObjAddr: 0x4FDC, symBinAddr: 0x100005918, symSize: 0x14 }
  - { offsetInCU: 0x412DF, offset: 0x412DF, size: 0x8, addend: 0x0, symName: __ZN6Halide10ImageParamD2Ev, symObjAddr: 0x4FF0, symBinAddr: 0x10000592C, symSize: 0x2C }
  - { offsetInCU: 0x4130C, offset: 0x4130C, size: 0x8, addend: 0x0, symName: __ZN6Halide16OutputImageParamD2Ev, symObjAddr: 0x501C, symBinAddr: 0x100005958, symSize: 0x38 }
  - { offsetInCU: 0x41339, offset: 0x41339, size: 0x8, addend: 0x0, symName: __ZN6Halide9ParameterD1Ev, symObjAddr: 0x5054, symBinAddr: 0x100005990, symSize: 0x2C }
  - { offsetInCU: 0x41366, offset: 0x41366, size: 0x8, addend: 0x0, symName: __ZN6Halide9ParameterD2Ev, symObjAddr: 0x5080, symBinAddr: 0x1000059BC, symSize: 0x2C }
  - { offsetInCU: 0x41393, offset: 0x41393, size: 0x8, addend: 0x0, symName: __ZN6Halide8Internal12IntrusivePtrINS0_17ParameterContentsEED1Ev, symObjAddr: 0x50AC, symBinAddr: 0x1000059E8, symSize: 0x2C }
  - { offsetInCU: 0x413BD, offset: 0x413BD, size: 0x8, addend: 0x0, symName: __ZN6Halide8Internal12IntrusivePtrINS0_17ParameterContentsEED2Ev, symObjAddr: 0x50D8, symBinAddr: 0x100005A14, symSize: 0x38 }
  - { offsetInCU: 0x413E7, offset: 0x413E7, size: 0x8, addend: 0x0, symName: __ZN6Halide8Internal12IntrusivePtrINS0_17ParameterContentsEE6decrefEPS2_, symObjAddr: 0x5110, symBinAddr: 0x100005A4C, symSize: 0x60 }
  - { offsetInCU: 0x4141C, offset: 0x4141C, size: 0x8, addend: 0x0, symName: __ZN6Halide4RDomD2Ev, symObjAddr: 0x5170, symBinAddr: 0x100005AAC, symSize: 0x5C }
  - { offsetInCU: 0x41449, offset: 0x41449, size: 0x8, addend: 0x0, symName: __ZN6Halide4FuncD2Ev, symObjAddr: 0x51CC, symBinAddr: 0x100005B08, symSize: 0x38 }
  - { offsetInCU: 0x41476, offset: 0x41476, size: 0x8, addend: 0x0, symName: __ZN6Halide8PipelineD1Ev, symObjAddr: 0x5204, symBinAddr: 0x100005B40, symSize: 0x2C }
  - { offsetInCU: 0x414A3, offset: 0x414A3, size: 0x8, addend: 0x0, symName: __ZN6Halide8PipelineD2Ev, symObjAddr: 0x5230, symBinAddr: 0x100005B6C, symSize: 0x2C }
  - { offsetInCU: 0x414D0, offset: 0x414D0, size: 0x8, addend: 0x0, symName: __ZN6Halide8Internal12IntrusivePtrINS_16PipelineContentsEED1Ev, symObjAddr: 0x525C, symBinAddr: 0x100005B98, symSize: 0x2C }
  - { offsetInCU: 0x414FA, offset: 0x414FA, size: 0x8, addend: 0x0, symName: __ZN6Halide8Internal12IntrusivePtrINS_16PipelineContentsEED2Ev, symObjAddr: 0x5288, symBinAddr: 0x100005BC4, symSize: 0x38 }
  - { offsetInCU: 0x41524, offset: 0x41524, size: 0x8, addend: 0x0, symName: __ZN6Halide8Internal12IntrusivePtrINS_16PipelineContentsEE6decrefEPS2_, symObjAddr: 0x52C0, symBinAddr: 0x100005BFC, symSize: 0x60 }
  - { offsetInCU: 0x41559, offset: 0x41559, size: 0x8, addend: 0x0, symName: __ZN6Halide3VarD2Ev, symObjAddr: 0x5320, symBinAddr: 0x100005C5C, symSize: 0x2C }
  - { offsetInCU: 0x41586, offset: 0x41586, size: 0x8, addend: 0x0, symName: __ZNSt3__112basic_stringIcNS_11char_traitsIcEENS_9allocatorIcEEEC2B8ue170006ILi0EEEPKc, symObjAddr: 0x534C, symBinAddr: 0x100005C88, symSize: 0x58 }
  - { offsetInCU: 0x415C5, offset: 0x415C5, size: 0x8, addend: 0x0, symName: __ZN6Halide4RDomC2IJRA2_KcEEENS_4ExprES5_DpOT_, symObjAddr: 0x53A4, symBinAddr: 0x100005CE0, symSize: 0x158 }
  - { offsetInCU: 0x4163F, offset: 0x4163F, size: 0x8, addend: 0x0, symName: __ZNSt3__16vectorIN6Halide5RangeENS_9allocatorIS2_EEEC1B8ue170006Ev, symObjAddr: 0x54FC, symBinAddr: 0x100005E38, symSize: 0x2C }
  - { offsetInCU: 0x4166F, offset: 0x4166F, size: 0x8, addend: 0x0, symName: __ZN6Halide4RDom22initialize_from_regionIJRA2_KcEEEvRNSt3__16vectorINS_5RangeENS5_9allocatorIS7_EEEERKNS_4ExprESE_DpOT_, symObjAddr: 0x5528, symBinAddr: 0x100005E64, symSize: 0xA4 }
  - { offsetInCU: 0x416DC, offset: 0x416DC, size: 0x8, addend: 0x0, symName: __ZNSt3__16vectorIN6Halide5RangeENS_9allocatorIS2_EEEC2B8ue170006Ev, symObjAddr: 0x55CC, symBinAddr: 0x100005F08, symSize: 0x4C }
  - { offsetInCU: 0x4170C, offset: 0x4170C, size: 0x8, addend: 0x0, symName: __ZNSt3__117__compressed_pairIPN6Halide5RangeENS_9allocatorIS2_EEEC1B8ue170006IDnNS_18__default_init_tagEEEOT_OT0_, symObjAddr: 0x5618, symBinAddr: 0x100005F54, symSize: 0x3C }
  - { offsetInCU: 0x41764, offset: 0x41764, size: 0x8, addend: 0x0, symName: __ZNSt3__117__compressed_pairIPN6Halide5RangeENS_9allocatorIS2_EEEC2B8ue170006IDnNS_18__default_init_tagEEEOT_OT0_, symObjAddr: 0x5654, symBinAddr: 0x100005F90, symSize: 0x40 }
  - { offsetInCU: 0x417BC, offset: 0x417BC, size: 0x8, addend: 0x0, symName: __ZNSt3__122__compressed_pair_elemIPN6Halide5RangeELi0ELb0EEC2B8ue170006IDnvEEOT_, symObjAddr: 0x5694, symBinAddr: 0x100005FD0, symSize: 0x1C }
  - { offsetInCU: 0x417FE, offset: 0x417FE, size: 0x8, addend: 0x0, symName: __ZNSt3__122__compressed_pair_elemINS_9allocatorIN6Halide5RangeEEELi1ELb1EEC2B8ue170006ENS_18__default_init_tagE, symObjAddr: 0x56B0, symBinAddr: 0x100005FEC, symSize: 0x2C }
  - { offsetInCU: 0x41833, offset: 0x41833, size: 0x8, addend: 0x0, symName: __ZNSt3__19allocatorIN6Halide5RangeEEC2B8ue170006Ev, symObjAddr: 0x56DC, symBinAddr: 0x100006018, symSize: 0x2C }
  - { offsetInCU: 0x4185D, offset: 0x4185D, size: 0x8, addend: 0x0, symName: __ZNSt3__116__non_trivial_ifILb1ENS_9allocatorIN6Halide5RangeEEEEC2B8ue170006Ev, symObjAddr: 0x5708, symBinAddr: 0x100006044, symSize: 0x14 }
  - { offsetInCU: 0x41887, offset: 0x41887, size: 0x8, addend: 0x0, symName: __ZNSt3__16vectorIN6Halide5RangeENS_9allocatorIS2_EEE12emplace_backIJRKNS1_4ExprES9_EEERS2_DpOT_, symObjAddr: 0x571C, symBinAddr: 0x100006058, symSize: 0x80 }
  - { offsetInCU: 0x418DD, offset: 0x418DD, size: 0x8, addend: 0x0, symName: __ZNSt3__16vectorIN6Halide5RangeENS_9allocatorIS2_EEE9__end_capB8ue170006Ev, symObjAddr: 0x579C, symBinAddr: 0x1000060D8, symSize: 0x28 }
  - { offsetInCU: 0x41903, offset: 0x41903, size: 0x8, addend: 0x0, symName: __ZNSt3__16vectorIN6Halide5RangeENS_9allocatorIS2_EEE22__construct_one_at_endB8ue170006IJRKNS1_4ExprES9_EEEvDpOT_, symObjAddr: 0x57C4, symBinAddr: 0x100006100, symSize: 0x98 }
  - { offsetInCU: 0x41966, offset: 0x41966, size: 0x8, addend: 0x0, symName: __ZNSt3__16vectorIN6Halide5RangeENS_9allocatorIS2_EEE24__emplace_back_slow_pathIJRKNS1_4ExprES9_EEEvDpOT_, symObjAddr: 0x585C, symBinAddr: 0x100006198, symSize: 0xE0 }
  - { offsetInCU: 0x419DA, offset: 0x419DA, size: 0x8, addend: 0x0, symName: __ZNSt3__16vectorIN6Halide5RangeENS_9allocatorIS2_EEE4backB8ue170006Ev, symObjAddr: 0x593C, symBinAddr: 0x100006278, symSize: 0x1C }
  - { offsetInCU: 0x41A00, offset: 0x41A00, size: 0x8, addend: 0x0, symName: __ZNSt3__117__compressed_pairIPN6Halide5RangeENS_9allocatorIS2_EEE5firstB8ue170006Ev, symObjAddr: 0x5958, symBinAddr: 0x100006294, symSize: 0x24 }
  - { offsetInCU: 0x41A26, offset: 0x41A26, size: 0x8, addend: 0x0, symName: __ZNSt3__122__compressed_pair_elemIPN6Halide5RangeELi0ELb0EE5__getB8ue170006Ev, symObjAddr: 0x597C, symBinAddr: 0x1000062B8, symSize: 0x14 }
  - { offsetInCU: 0x41A68, offset: 0x41A68, size: 0x8, addend: 0x0, symName: __ZNSt3__16vectorIN6Halide5RangeENS_9allocatorIS2_EEE21_ConstructTransactionC1B8ue170006ERS5_m, symObjAddr: 0x5990, symBinAddr: 0x1000062CC, symSize: 0x3C }
  - { offsetInCU: 0x41AB0, offset: 0x41AB0, size: 0x8, addend: 0x0, symName: __ZNSt3__116allocator_traitsINS_9allocatorIN6Halide5RangeEEEE9constructB8ue170006IS3_JRKNS2_4ExprES9_EvEEvRS4_PT_DpOT0_, symObjAddr: 0x59CC, symBinAddr: 0x100006308, symSize: 0x3C }
  - { offsetInCU: 0x41B1B, offset: 0x41B1B, size: 0x8, addend: 0x0, symName: __ZNSt3__16vectorIN6Halide5RangeENS_9allocatorIS2_EEE21_ConstructTransactionD1B8ue170006Ev, symObjAddr: 0x5A08, symBinAddr: 0x100006344, symSize: 0x2C }
  - { offsetInCU: 0x41B45, offset: 0x41B45, size: 0x8, addend: 0x0, symName: __ZNSt3__16vectorIN6Halide5RangeENS_9allocatorIS2_EEE21_ConstructTransactionC2B8ue170006ERS5_m, symObjAddr: 0x5A34, symBinAddr: 0x100006370, symSize: 0x44 }
  - { offsetInCU: 0x41B8D, offset: 0x41B8D, size: 0x8, addend: 0x0, symName: __ZNSt3__19allocatorIN6Halide5RangeEE9constructB8ue170006IS2_JRKNS1_4ExprES7_EEEvPT_DpOT0_, symObjAddr: 0x5A78, symBinAddr: 0x1000063B4, symSize: 0x38 }
  - { offsetInCU: 0x41BF6, offset: 0x41BF6, size: 0x8, addend: 0x0, symName: __ZNSt3__16vectorIN6Halide5RangeENS_9allocatorIS2_EEE21_ConstructTransactionD2B8ue170006Ev, symObjAddr: 0x5AB0, symBinAddr: 0x1000063EC, symSize: 0x20 }
  - { offsetInCU: 0x41C20, offset: 0x41C20, size: 0x8, addend: 0x0, symName: __ZNKSt3__16vectorIN6Halide5RangeENS_9allocatorIS2_EEE11__recommendB8ue170006Em, symObjAddr: 0x5AD0, symBinAddr: 0x10000640C, symSize: 0xB4 }
  - { offsetInCU: 0x41C75, offset: 0x41C75, size: 0x8, addend: 0x0, symName: __ZNSt3__114__split_bufferIN6Halide5RangeERNS_9allocatorIS2_EEEC1EmmS5_, symObjAddr: 0x5B84, symBinAddr: 0x1000064C0, symSize: 0x44 }
  - { offsetInCU: 0x41CCB, offset: 0x41CCB, size: 0x8, addend: 0x0, symName: __ZNSt3__114__split_bufferIN6Halide5RangeERNS_9allocatorIS2_EEED1Ev, symObjAddr: 0x5CD8, symBinAddr: 0x100006614, symSize: 0x2C }
  - { offsetInCU: 0x41CF7, offset: 0x41CF7, size: 0x8, addend: 0x0, symName: __ZNKSt3__16vectorIN6Halide5RangeENS_9allocatorIS2_EEE8max_sizeEv, symObjAddr: 0x5D04, symBinAddr: 0x100006640, symSize: 0x60 }
  - { offsetInCU: 0x41D1F, offset: 0x41D1F, size: 0x8, addend: 0x0, symName: __ZNKSt3__16vectorIN6Halide5RangeENS_9allocatorIS2_EEE20__throw_length_errorB8ue170006Ev, symObjAddr: 0x5D64, symBinAddr: 0x1000066A0, symSize: 0x1C }
  - { offsetInCU: 0x41D50, offset: 0x41D50, size: 0x8, addend: 0x0, symName: __ZNSt3__116allocator_traitsINS_9allocatorIN6Halide5RangeEEEE8max_sizeB8ue170006IS4_vEEmRKS4_, symObjAddr: 0x5DD8, symBinAddr: 0x100006714, symSize: 0x24 }
  - { offsetInCU: 0x41D7E, offset: 0x41D7E, size: 0x8, addend: 0x0, symName: __ZNKSt3__16vectorIN6Halide5RangeENS_9allocatorIS2_EEE7__allocB8ue170006Ev, symObjAddr: 0x5DFC, symBinAddr: 0x100006738, symSize: 0x28 }
  - { offsetInCU: 0x41DA4, offset: 0x41DA4, size: 0x8, addend: 0x0, symName: __ZNSt3__114numeric_limitsIlE3maxB8ue170006Ev, symObjAddr: 0x5E24, symBinAddr: 0x100006760, symSize: 0x14 }
  - { offsetInCU: 0x41DC3, offset: 0x41DC3, size: 0x8, addend: 0x0, symName: __ZNKSt3__16__lessIvvEclB8ue170006ImmEEbRKT_RKT0_, symObjAddr: 0x5E8C, symBinAddr: 0x1000067C8, symSize: 0x34 }
  - { offsetInCU: 0x41E17, offset: 0x41E17, size: 0x8, addend: 0x0, symName: __ZNKSt3__19allocatorIN6Halide5RangeEE8max_sizeB8ue170006Ev, symObjAddr: 0x5EC0, symBinAddr: 0x1000067FC, symSize: 0x14 }
  - { offsetInCU: 0x41E3D, offset: 0x41E3D, size: 0x8, addend: 0x0, symName: __ZNKSt3__117__compressed_pairIPN6Halide5RangeENS_9allocatorIS2_EEE6secondB8ue170006Ev, symObjAddr: 0x5ED4, symBinAddr: 0x100006810, symSize: 0x24 }
  - { offsetInCU: 0x41E63, offset: 0x41E63, size: 0x8, addend: 0x0, symName: __ZNKSt3__122__compressed_pair_elemINS_9allocatorIN6Halide5RangeEEELi1ELb1EE5__getB8ue170006Ev, symObjAddr: 0x5EF8, symBinAddr: 0x100006834, symSize: 0x14 }
  - { offsetInCU: 0x41E89, offset: 0x41E89, size: 0x8, addend: 0x0, symName: __ZNSt3__123__libcpp_numeric_limitsIlLb1EE3maxB8ue170006Ev, symObjAddr: 0x5F0C, symBinAddr: 0x100006848, symSize: 0x8 }
  - { offsetInCU: 0x41E9D, offset: 0x41E9D, size: 0x8, addend: 0x0, symName: __ZNSt12length_errorC1B8ue170006EPKc, symObjAddr: 0x5F78, symBinAddr: 0x1000068B4, symSize: 0x34 }
  - { offsetInCU: 0x41ED5, offset: 0x41ED5, size: 0x8, addend: 0x0, symName: __ZNSt12length_errorC2B8ue170006EPKc, symObjAddr: 0x5FAC, symBinAddr: 0x1000068E8, symSize: 0x4C }
  - { offsetInCU: 0x41F0D, offset: 0x41F0D, size: 0x8, addend: 0x0, symName: __ZNSt3__114__split_bufferIN6Halide5RangeERNS_9allocatorIS2_EEEC2EmmS5_, symObjAddr: 0x604C, symBinAddr: 0x100006988, symSize: 0xD4 }
  - { offsetInCU: 0x41F80, offset: 0x41F80, size: 0x8, addend: 0x0, symName: __ZNSt3__117__compressed_pairIPN6Halide5RangeERNS_9allocatorIS2_EEEC1B8ue170006IDnS6_EEOT_OT0_, symObjAddr: 0x6120, symBinAddr: 0x100006A5C, symSize: 0x3C }
  - { offsetInCU: 0x41FD8, offset: 0x41FD8, size: 0x8, addend: 0x0, symName: __ZNSt3__114__split_bufferIN6Halide5RangeERNS_9allocatorIS2_EEE7__allocB8ue170006Ev, symObjAddr: 0x619C, symBinAddr: 0x100006AD8, symSize: 0x28 }
  - { offsetInCU: 0x41FFE, offset: 0x41FFE, size: 0x8, addend: 0x0, symName: __ZNSt3__114__split_bufferIN6Halide5RangeERNS_9allocatorIS2_EEE9__end_capB8ue170006Ev, symObjAddr: 0x61C4, symBinAddr: 0x100006B00, symSize: 0x28 }
  - { offsetInCU: 0x42024, offset: 0x42024, size: 0x8, addend: 0x0, symName: __ZNSt3__117__compressed_pairIPN6Halide5RangeERNS_9allocatorIS2_EEEC2B8ue170006IDnS6_EEOT_OT0_, symObjAddr: 0x61EC, symBinAddr: 0x100006B28, symSize: 0x48 }
  - { offsetInCU: 0x4207C, offset: 0x4207C, size: 0x8, addend: 0x0, symName: __ZNSt3__122__compressed_pair_elemIRNS_9allocatorIN6Halide5RangeEEELi1ELb0EEC2B8ue170006IS5_vEEOT_, symObjAddr: 0x6234, symBinAddr: 0x100006B70, symSize: 0x20 }
  - { offsetInCU: 0x420BE, offset: 0x420BE, size: 0x8, addend: 0x0, symName: __ZNSt3__19allocatorIN6Halide5RangeEE8allocateB8ue170006Em, symObjAddr: 0x6254, symBinAddr: 0x100006B90, symSize: 0x58 }
  - { offsetInCU: 0x420F2, offset: 0x420F2, size: 0x8, addend: 0x0, symName: __ZNSt3__117__compressed_pairIPN6Halide5RangeERNS_9allocatorIS2_EEE6secondB8ue170006Ev, symObjAddr: 0x6390, symBinAddr: 0x100006CCC, symSize: 0x28 }
  - { offsetInCU: 0x42118, offset: 0x42118, size: 0x8, addend: 0x0, symName: __ZNSt3__122__compressed_pair_elemIRNS_9allocatorIN6Halide5RangeEEELi1ELb0EE5__getB8ue170006Ev, symObjAddr: 0x63B8, symBinAddr: 0x100006CF4, symSize: 0x18 }
  - { offsetInCU: 0x4213E, offset: 0x4213E, size: 0x8, addend: 0x0, symName: __ZNSt3__117__compressed_pairIPN6Halide5RangeERNS_9allocatorIS2_EEE5firstB8ue170006Ev, symObjAddr: 0x63D0, symBinAddr: 0x100006D0C, symSize: 0x24 }
  - { offsetInCU: 0x42164, offset: 0x42164, size: 0x8, addend: 0x0, symName: __ZNSt3__116reverse_iteratorIPN6Halide5RangeEEC1B8ue170006ES3_, symObjAddr: 0x6520, symBinAddr: 0x100006E5C, symSize: 0x34 }
  - { offsetInCU: 0x4219C, offset: 0x4219C, size: 0x8, addend: 0x0, symName: __ZNKSt3__116reverse_iteratorIPN6Halide5RangeEE4baseB8ue170006Ev, symObjAddr: 0x6554, symBinAddr: 0x100006E90, symSize: 0x18 }
  - { offsetInCU: 0x421C2, offset: 0x421C2, size: 0x8, addend: 0x0, symName: __ZNKSt3__16vectorIN6Halide5RangeENS_9allocatorIS2_EEE14__annotate_newB8ue170006Em, symObjAddr: 0x65A8, symBinAddr: 0x100006EE4, symSize: 0xAC }
  - { offsetInCU: 0x421F7, offset: 0x421F7, size: 0x8, addend: 0x0, symName: __ZNSt3__129_AllocatorDestroyRangeReverseINS_9allocatorIN6Halide5RangeEEENS_16reverse_iteratorIPS3_EEEC1B8ue170006ERS4_RS7_SA_, symObjAddr: 0x66A0, symBinAddr: 0x100006FDC, symSize: 0x44 }
  - { offsetInCU: 0x42254, offset: 0x42254, size: 0x8, addend: 0x0, symName: __ZNSt3__116allocator_traitsINS_9allocatorIN6Halide5RangeEEEE9constructB8ue170006IS3_JS3_EvEEvRS4_PT_DpOT0_, symObjAddr: 0x672C, symBinAddr: 0x100007068, symSize: 0x34 }
  - { offsetInCU: 0x422AB, offset: 0x422AB, size: 0x8, addend: 0x0, symName: __ZNKSt3__116reverse_iteratorIPN6Halide5RangeEEdeB8ue170006Ev, symObjAddr: 0x6784, symBinAddr: 0x1000070C0, symSize: 0x28 }
  - { offsetInCU: 0x422DF, offset: 0x422DF, size: 0x8, addend: 0x0, symName: __ZNSt3__116reverse_iteratorIPN6Halide5RangeEEppB8ue170006Ev, symObjAddr: 0x67AC, symBinAddr: 0x1000070E8, symSize: 0x20 }
  - { offsetInCU: 0x42305, offset: 0x42305, size: 0x8, addend: 0x0, symName: __ZNSt3__128__exception_guard_exceptionsINS_29_AllocatorDestroyRangeReverseINS_9allocatorIN6Halide5RangeEEENS_16reverse_iteratorIPS4_EEEEE10__completeB8ue170006Ev, symObjAddr: 0x67CC, symBinAddr: 0x100007108, symSize: 0x1C }
  - { offsetInCU: 0x4232B, offset: 0x4232B, size: 0x8, addend: 0x0, symName: __ZNSt3__128__exception_guard_exceptionsINS_29_AllocatorDestroyRangeReverseINS_9allocatorIN6Halide5RangeEEENS_16reverse_iteratorIPS4_EEEEED1B8ue170006Ev, symObjAddr: 0x67E8, symBinAddr: 0x100007124, symSize: 0x2C }
  - { offsetInCU: 0x42355, offset: 0x42355, size: 0x8, addend: 0x0, symName: __ZNSt3__128__exception_guard_exceptionsINS_29_AllocatorDestroyRangeReverseINS_9allocatorIN6Halide5RangeEEENS_16reverse_iteratorIPS4_EEEEEC1B8ue170006ES9_, symObjAddr: 0x6814, symBinAddr: 0x100007150, symSize: 0x34 }
  - { offsetInCU: 0x4238E, offset: 0x4238E, size: 0x8, addend: 0x0, symName: __ZNSt3__128__exception_guard_exceptionsINS_29_AllocatorDestroyRangeReverseINS_9allocatorIN6Halide5RangeEEENS_16reverse_iteratorIPS4_EEEEEC2B8ue170006ES9_, symObjAddr: 0x6848, symBinAddr: 0x100007184, symSize: 0x30 }
  - { offsetInCU: 0x423C7, offset: 0x423C7, size: 0x8, addend: 0x0, symName: __ZNSt3__129_AllocatorDestroyRangeReverseINS_9allocatorIN6Halide5RangeEEENS_16reverse_iteratorIPS3_EEEC2B8ue170006ERS4_RS7_SA_, symObjAddr: 0x6878, symBinAddr: 0x1000071B4, symSize: 0x38 }
  - { offsetInCU: 0x4241E, offset: 0x4241E, size: 0x8, addend: 0x0, symName: __ZNSt3__19allocatorIN6Halide5RangeEE9constructB8ue170006IS2_JS2_EEEvPT_DpOT0_, symObjAddr: 0x68B0, symBinAddr: 0x1000071EC, symSize: 0x30 }
  - { offsetInCU: 0x42474, offset: 0x42474, size: 0x8, addend: 0x0, symName: __ZN6Halide5RangeC1EOS0_, symObjAddr: 0x68E0, symBinAddr: 0x10000721C, symSize: 0x34 }
  - { offsetInCU: 0x424AA, offset: 0x424AA, size: 0x8, addend: 0x0, symName: __ZN6Halide5RangeC2EOS0_, symObjAddr: 0x6914, symBinAddr: 0x100007250, symSize: 0x48 }
  - { offsetInCU: 0x424E6, offset: 0x424E6, size: 0x8, addend: 0x0, symName: __ZN6Halide4ExprC1EOS0_, symObjAddr: 0x695C, symBinAddr: 0x100007298, symSize: 0x34 }
  - { offsetInCU: 0x4251C, offset: 0x4251C, size: 0x8, addend: 0x0, symName: __ZN6Halide4ExprC2EOS0_, symObjAddr: 0x6990, symBinAddr: 0x1000072CC, symSize: 0x34 }
  - { offsetInCU: 0x4257F, offset: 0x4257F, size: 0x8, addend: 0x0, symName: __ZN6Halide8Internal8IRHandleC2EOS1_, symObjAddr: 0x69C4, symBinAddr: 0x100007300, symSize: 0x3C }
  - { offsetInCU: 0x425E4, offset: 0x425E4, size: 0x8, addend: 0x0, symName: __ZNSt3__119__to_address_helperINS_16reverse_iteratorIPN6Halide5RangeEEEvE6__callB8ue170006ERKS5_, symObjAddr: 0x6A00, symBinAddr: 0x10000733C, symSize: 0x38 }
  - { offsetInCU: 0x42607, offset: 0x42607, size: 0x8, addend: 0x0, symName: __ZNKSt3__116reverse_iteratorIPN6Halide5RangeEEptB8ue170006Ev, symObjAddr: 0x6A38, symBinAddr: 0x100007374, symSize: 0x24 }
  - { offsetInCU: 0x4262D, offset: 0x4262D, size: 0x8, addend: 0x0, symName: __ZNSt3__128__exception_guard_exceptionsINS_29_AllocatorDestroyRangeReverseINS_9allocatorIN6Halide5RangeEEENS_16reverse_iteratorIPS4_EEEEED2B8ue170006Ev, symObjAddr: 0x6A5C, symBinAddr: 0x100007398, symSize: 0x50 }
  - { offsetInCU: 0x42657, offset: 0x42657, size: 0x8, addend: 0x0, symName: __ZNKSt3__129_AllocatorDestroyRangeReverseINS_9allocatorIN6Halide5RangeEEENS_16reverse_iteratorIPS3_EEEclB8ue170006Ev, symObjAddr: 0x6AAC, symBinAddr: 0x1000073E8, symSize: 0xB4 }
  - { offsetInCU: 0x4267E, offset: 0x4267E, size: 0x8, addend: 0x0, symName: __ZNSt3__116reverse_iteratorINS0_IPN6Halide5RangeEEEEC1B8ue170006ES4_, symObjAddr: 0x6BD0, symBinAddr: 0x10000750C, symSize: 0x3C }
  - { offsetInCU: 0x426B6, offset: 0x426B6, size: 0x8, addend: 0x0, symName: __ZNSt3__116reverse_iteratorINS0_IPN6Halide5RangeEEEEppB8ue170006Ev, symObjAddr: 0x6C90, symBinAddr: 0x1000075CC, symSize: 0x30 }
  - { offsetInCU: 0x426DC, offset: 0x426DC, size: 0x8, addend: 0x0, symName: __ZNKSt3__116reverse_iteratorINS0_IPN6Halide5RangeEEEE4baseB8ue170006Ev, symObjAddr: 0x6CC0, symBinAddr: 0x1000075FC, symSize: 0x24 }
  - { offsetInCU: 0x42708, offset: 0x42708, size: 0x8, addend: 0x0, symName: __ZNSt3__119__to_address_helperINS_16reverse_iteratorINS1_IPN6Halide5RangeEEEEEvE6__callB8ue170006ERKS6_, symObjAddr: 0x6CE4, symBinAddr: 0x100007620, symSize: 0x38 }
  - { offsetInCU: 0x4272B, offset: 0x4272B, size: 0x8, addend: 0x0, symName: __ZNKSt3__116reverse_iteratorINS0_IPN6Halide5RangeEEEEptB8ue170006Ev, symObjAddr: 0x6D1C, symBinAddr: 0x100007658, symSize: 0x24 }
  - { offsetInCU: 0x42751, offset: 0x42751, size: 0x8, addend: 0x0, symName: __ZNKSt3__116reverse_iteratorINS0_IPN6Halide5RangeEEEEdeB8ue170006Ev, symObjAddr: 0x6D40, symBinAddr: 0x10000767C, symSize: 0x34 }
  - { offsetInCU: 0x42785, offset: 0x42785, size: 0x8, addend: 0x0, symName: __ZNSt3__116reverse_iteratorIPN6Halide5RangeEEmmB8ue170006Ev, symObjAddr: 0x6D74, symBinAddr: 0x1000076B0, symSize: 0x20 }
  - { offsetInCU: 0x427AB, offset: 0x427AB, size: 0x8, addend: 0x0, symName: __ZNSt3__116reverse_iteratorINS0_IPN6Halide5RangeEEEEC2B8ue170006ES4_, symObjAddr: 0x6D94, symBinAddr: 0x1000076D0, symSize: 0x2C }
  - { offsetInCU: 0x427E3, offset: 0x427E3, size: 0x8, addend: 0x0, symName: __ZNSt3__116reverse_iteratorIPN6Halide5RangeEEC2B8ue170006ES3_, symObjAddr: 0x6DC0, symBinAddr: 0x1000076FC, symSize: 0x28 }
  - { offsetInCU: 0x4281B, offset: 0x4281B, size: 0x8, addend: 0x0, symName: __ZNSt3__114__split_bufferIN6Halide5RangeERNS_9allocatorIS2_EEED2Ev, symObjAddr: 0x6DE8, symBinAddr: 0x100007724, symSize: 0x8C }
  - { offsetInCU: 0x42847, offset: 0x42847, size: 0x8, addend: 0x0, symName: __ZNSt3__114__split_bufferIN6Halide5RangeERNS_9allocatorIS2_EEE5clearB8ue170006Ev, symObjAddr: 0x6E74, symBinAddr: 0x1000077B0, symSize: 0x28 }
  - { offsetInCU: 0x4286D, offset: 0x4286D, size: 0x8, addend: 0x0, symName: __ZNKSt3__114__split_bufferIN6Halide5RangeERNS_9allocatorIS2_EEE8capacityB8ue170006Ev, symObjAddr: 0x6E9C, symBinAddr: 0x1000077D8, symSize: 0x40 }
  - { offsetInCU: 0x42893, offset: 0x42893, size: 0x8, addend: 0x0, symName: __ZNSt3__114__split_bufferIN6Halide5RangeERNS_9allocatorIS2_EEE17__destruct_at_endB8ue170006EPS2_, symObjAddr: 0x6EDC, symBinAddr: 0x100007818, symSize: 0x2C }
  - { offsetInCU: 0x428C7, offset: 0x428C7, size: 0x8, addend: 0x0, symName: __ZNSt3__114__split_bufferIN6Halide5RangeERNS_9allocatorIS2_EEE17__destruct_at_endB8ue170006EPS2_NS_17integral_constantIbLb0EEE, symObjAddr: 0x6F08, symBinAddr: 0x100007844, symSize: 0x80 }
  - { offsetInCU: 0x42908, offset: 0x42908, size: 0x8, addend: 0x0, symName: __ZNKSt3__114__split_bufferIN6Halide5RangeERNS_9allocatorIS2_EEE9__end_capB8ue170006Ev, symObjAddr: 0x6F88, symBinAddr: 0x1000078C4, symSize: 0x28 }
  - { offsetInCU: 0x4292E, offset: 0x4292E, size: 0x8, addend: 0x0, symName: __ZNKSt3__117__compressed_pairIPN6Halide5RangeERNS_9allocatorIS2_EEE5firstB8ue170006Ev, symObjAddr: 0x6FB0, symBinAddr: 0x1000078EC, symSize: 0x24 }
  - { offsetInCU: 0x42954, offset: 0x42954, size: 0x8, addend: 0x0, symName: __ZNSt3__16vectorIN6Halide3VarENS_9allocatorIS2_EEEC1B8ue170006ESt16initializer_listIS2_E, symObjAddr: 0x6FD4, symBinAddr: 0x100007910, symSize: 0x3C }
  - { offsetInCU: 0x4298F, offset: 0x4298F, size: 0x8, addend: 0x0, symName: __ZNSt3__16vectorIN6Halide3VarENS_9allocatorIS2_EEEC1ERKS5_, symObjAddr: 0x7010, symBinAddr: 0x10000794C, symSize: 0x34 }
  - { offsetInCU: 0x429CA, offset: 0x429CA, size: 0x8, addend: 0x0, symName: __ZNSt3__16vectorIN6Halide3VarENS_9allocatorIS2_EEEC2B8ue170006ESt16initializer_listIS2_E, symObjAddr: 0x7044, symBinAddr: 0x100007980, symSize: 0x120 }
  - { offsetInCU: 0x42A1A, offset: 0x42A1A, size: 0x8, addend: 0x0, symName: __ZNSt3__117__compressed_pairIPN6Halide3VarENS_9allocatorIS2_EEEC1B8ue170006IDnNS_18__default_init_tagEEEOT_OT0_, symObjAddr: 0x7164, symBinAddr: 0x100007AA0, symSize: 0x3C }
  - { offsetInCU: 0x42A72, offset: 0x42A72, size: 0x8, addend: 0x0, symName: __ZNKSt16initializer_listIN6Halide3VarEE4sizeB8ue170006Ev, symObjAddr: 0x71E0, symBinAddr: 0x100007B1C, symSize: 0x18 }
  - { offsetInCU: 0x42A98, offset: 0x42A98, size: 0x8, addend: 0x0, symName: __ZNSt3__16vectorIN6Halide3VarENS_9allocatorIS2_EEE11__vallocateB8ue170006Em, symObjAddr: 0x71F8, symBinAddr: 0x100007B34, symSize: 0xAC }
  - { offsetInCU: 0x42ADC, offset: 0x42ADC, size: 0x8, addend: 0x0, symName: __ZNSt3__16vectorIN6Halide3VarENS_9allocatorIS2_EEE18__construct_at_endIPKS2_S8_EEvT_T0_m, symObjAddr: 0x72A4, symBinAddr: 0x100007BE0, symSize: 0x8C }
  - { offsetInCU: 0x42B52, offset: 0x42B52, size: 0x8, addend: 0x0, symName: __ZNKSt16initializer_listIN6Halide3VarEE5beginB8ue170006Ev, symObjAddr: 0x7330, symBinAddr: 0x100007C6C, symSize: 0x18 }
  - { offsetInCU: 0x42B78, offset: 0x42B78, size: 0x8, addend: 0x0, symName: __ZNKSt16initializer_listIN6Halide3VarEE3endB8ue170006Ev, symObjAddr: 0x7348, symBinAddr: 0x100007C84, symSize: 0x20 }
  - { offsetInCU: 0x42B9E, offset: 0x42B9E, size: 0x8, addend: 0x0, symName: __ZNSt3__128__exception_guard_exceptionsINS_6vectorIN6Halide3VarENS_9allocatorIS3_EEE16__destroy_vectorEE10__completeB8ue170006Ev, symObjAddr: 0x7368, symBinAddr: 0x100007CA4, symSize: 0x1C }
  - { offsetInCU: 0x42BC4, offset: 0x42BC4, size: 0x8, addend: 0x0, symName: __ZNSt3__128__exception_guard_exceptionsINS_6vectorIN6Halide3VarENS_9allocatorIS3_EEE16__destroy_vectorEED1B8ue170006Ev, symObjAddr: 0x7384, symBinAddr: 0x100007CC0, symSize: 0x2C }
  - { offsetInCU: 0x42BEE, offset: 0x42BEE, size: 0x8, addend: 0x0, symName: __ZNSt3__117__compressed_pairIPN6Halide3VarENS_9allocatorIS2_EEEC2B8ue170006IDnNS_18__default_init_tagEEEOT_OT0_, symObjAddr: 0x73B0, symBinAddr: 0x100007CEC, symSize: 0x40 }
  - { offsetInCU: 0x42C46, offset: 0x42C46, size: 0x8, addend: 0x0, symName: __ZNSt3__122__compressed_pair_elemIPN6Halide3VarELi0ELb0EEC2B8ue170006IDnvEEOT_, symObjAddr: 0x73F0, symBinAddr: 0x100007D2C, symSize: 0x1C }
  - { offsetInCU: 0x42C88, offset: 0x42C88, size: 0x8, addend: 0x0, symName: __ZNSt3__122__compressed_pair_elemINS_9allocatorIN6Halide3VarEEELi1ELb1EEC2B8ue170006ENS_18__default_init_tagE, symObjAddr: 0x740C, symBinAddr: 0x100007D48, symSize: 0x2C }
  - { offsetInCU: 0x42CBD, offset: 0x42CBD, size: 0x8, addend: 0x0, symName: __ZNSt3__19allocatorIN6Halide3VarEEC2B8ue170006Ev, symObjAddr: 0x7438, symBinAddr: 0x100007D74, symSize: 0x2C }
  - { offsetInCU: 0x42CE7, offset: 0x42CE7, size: 0x8, addend: 0x0, symName: __ZNSt3__116__non_trivial_ifILb1ENS_9allocatorIN6Halide3VarEEEEC2B8ue170006Ev, symObjAddr: 0x7464, symBinAddr: 0x100007DA0, symSize: 0x14 }
  - { offsetInCU: 0x42D11, offset: 0x42D11, size: 0x8, addend: 0x0, symName: __ZNSt3__128__exception_guard_exceptionsINS_6vectorIN6Halide3VarENS_9allocatorIS3_EEE16__destroy_vectorEEC1B8ue170006ES7_, symObjAddr: 0x7478, symBinAddr: 0x100007DB4, symSize: 0x34 }
  - { offsetInCU: 0x42D49, offset: 0x42D49, size: 0x8, addend: 0x0, symName: __ZNSt3__128__exception_guard_exceptionsINS_6vectorIN6Halide3VarENS_9allocatorIS3_EEE16__destroy_vectorEEC2B8ue170006ES7_, symObjAddr: 0x74AC, symBinAddr: 0x100007DE8, symSize: 0x24 }
  - { offsetInCU: 0x42D81, offset: 0x42D81, size: 0x8, addend: 0x0, symName: __ZNKSt3__16vectorIN6Halide3VarENS_9allocatorIS2_EEE8max_sizeEv, symObjAddr: 0x74D0, symBinAddr: 0x100007E0C, symSize: 0x60 }
  - { offsetInCU: 0x42DA9, offset: 0x42DA9, size: 0x8, addend: 0x0, symName: __ZNKSt3__16vectorIN6Halide3VarENS_9allocatorIS2_EEE20__throw_length_errorB8ue170006Ev, symObjAddr: 0x7530, symBinAddr: 0x100007E6C, symSize: 0x1C }
  - { offsetInCU: 0x42DCF, offset: 0x42DCF, size: 0x8, addend: 0x0, symName: __ZNSt3__16vectorIN6Halide3VarENS_9allocatorIS2_EEE9__end_capB8ue170006Ev, symObjAddr: 0x758C, symBinAddr: 0x100007EC8, symSize: 0x28 }
  - { offsetInCU: 0x42DF5, offset: 0x42DF5, size: 0x8, addend: 0x0, symName: __ZNKSt3__16vectorIN6Halide3VarENS_9allocatorIS2_EEE14__annotate_newB8ue170006Em, symObjAddr: 0x75B4, symBinAddr: 0x100007EF0, symSize: 0xAC }
  - { offsetInCU: 0x42E35, offset: 0x42E35, size: 0x8, addend: 0x0, symName: __ZNSt3__116allocator_traitsINS_9allocatorIN6Halide3VarEEEE8max_sizeB8ue170006IS4_vEEmRKS4_, symObjAddr: 0x7660, symBinAddr: 0x100007F9C, symSize: 0x24 }
  - { offsetInCU: 0x42E63, offset: 0x42E63, size: 0x8, addend: 0x0, symName: __ZNKSt3__16vectorIN6Halide3VarENS_9allocatorIS2_EEE7__allocB8ue170006Ev, symObjAddr: 0x7684, symBinAddr: 0x100007FC0, symSize: 0x28 }
  - { offsetInCU: 0x42E89, offset: 0x42E89, size: 0x8, addend: 0x0, symName: __ZNKSt3__19allocatorIN6Halide3VarEE8max_sizeB8ue170006Ev, symObjAddr: 0x76AC, symBinAddr: 0x100007FE8, symSize: 0x14 }
  - { offsetInCU: 0x42EAF, offset: 0x42EAF, size: 0x8, addend: 0x0, symName: __ZNKSt3__117__compressed_pairIPN6Halide3VarENS_9allocatorIS2_EEE6secondB8ue170006Ev, symObjAddr: 0x76C0, symBinAddr: 0x100007FFC, symSize: 0x24 }
  - { offsetInCU: 0x42ED5, offset: 0x42ED5, size: 0x8, addend: 0x0, symName: __ZNKSt3__122__compressed_pair_elemINS_9allocatorIN6Halide3VarEEELi1ELb1EE5__getB8ue170006Ev, symObjAddr: 0x76E4, symBinAddr: 0x100008020, symSize: 0x14 }
  - { offsetInCU: 0x42EFB, offset: 0x42EFB, size: 0x8, addend: 0x0, symName: __ZNSt3__19allocatorIN6Halide3VarEE8allocateB8ue170006Em, symObjAddr: 0x76F8, symBinAddr: 0x100008034, symSize: 0x58 }
  - { offsetInCU: 0x42F2F, offset: 0x42F2F, size: 0x8, addend: 0x0, symName: __ZNSt3__117__compressed_pairIPN6Halide3VarENS_9allocatorIS2_EEE5firstB8ue170006Ev, symObjAddr: 0x7750, symBinAddr: 0x10000808C, symSize: 0x24 }
  - { offsetInCU: 0x42F55, offset: 0x42F55, size: 0x8, addend: 0x0, symName: __ZNSt3__122__compressed_pair_elemIPN6Halide3VarELi0ELb0EE5__getB8ue170006Ev, symObjAddr: 0x7774, symBinAddr: 0x1000080B0, symSize: 0x14 }
  - { offsetInCU: 0x42F97, offset: 0x42F97, size: 0x8, addend: 0x0, symName: __ZNSt3__16vectorIN6Halide3VarENS_9allocatorIS2_EEE21_ConstructTransactionC1B8ue170006ERS5_m, symObjAddr: 0x7788, symBinAddr: 0x1000080C4, symSize: 0x3C }
  - { offsetInCU: 0x42FDF, offset: 0x42FDF, size: 0x8, addend: 0x0, symName: __ZNSt3__16vectorIN6Halide3VarENS_9allocatorIS2_EEE21_ConstructTransactionD1B8ue170006Ev, symObjAddr: 0x7844, symBinAddr: 0x100008180, symSize: 0x2C }
  - { offsetInCU: 0x43009, offset: 0x43009, size: 0x8, addend: 0x0, symName: __ZNSt3__16vectorIN6Halide3VarENS_9allocatorIS2_EEE21_ConstructTransactionC2B8ue170006ERS5_m, symObjAddr: 0x7870, symBinAddr: 0x1000081AC, symSize: 0x44 }
  - { offsetInCU: 0x43074, offset: 0x43074, size: 0x8, addend: 0x0, symName: __ZNSt3__14pairIPKN6Halide3VarES4_EC1B8ue170006IS4_S4_LPv0EEEOT_OT0_, symObjAddr: 0x7AC4, symBinAddr: 0x100008400, symSize: 0x3C }
  - { offsetInCU: 0x430D2, offset: 0x430D2, size: 0x8, addend: 0x0, symName: __ZNSt3__14pairIPKN6Halide3VarES4_EC2B8ue170006IS4_S4_LPv0EEEOT_OT0_, symObjAddr: 0x7B00, symBinAddr: 0x10000843C, symSize: 0x34 }
  - { offsetInCU: 0x43130, offset: 0x43130, size: 0x8, addend: 0x0, symName: __ZNSt3__118__unwrap_iter_implIPKN6Halide3VarELb1EE8__unwrapB8ue170006ES4_, symObjAddr: 0x7B34, symBinAddr: 0x100008470, symSize: 0x24 }
  - { offsetInCU: 0x43153, offset: 0x43153, size: 0x8, addend: 0x0, symName: __ZNSt3__129_AllocatorDestroyRangeReverseINS_9allocatorIN6Halide3VarEEEPS3_EC1B8ue170006ERS4_RS5_S8_, symObjAddr: 0x7BB8, symBinAddr: 0x1000084F4, symSize: 0x44 }
  - { offsetInCU: 0x431AA, offset: 0x431AA, size: 0x8, addend: 0x0, symName: __ZNSt3__116allocator_traitsINS_9allocatorIN6Halide3VarEEEE9constructB8ue170006IS3_JRKS3_EvEEvRS4_PT_DpOT0_, symObjAddr: 0x7BFC, symBinAddr: 0x100008538, symSize: 0x34 }
  - { offsetInCU: 0x43201, offset: 0x43201, size: 0x8, addend: 0x0, symName: __ZNSt3__128__exception_guard_exceptionsINS_29_AllocatorDestroyRangeReverseINS_9allocatorIN6Halide3VarEEEPS4_EEE10__completeB8ue170006Ev, symObjAddr: 0x7C30, symBinAddr: 0x10000856C, symSize: 0x1C }
  - { offsetInCU: 0x43227, offset: 0x43227, size: 0x8, addend: 0x0, symName: __ZNSt3__128__exception_guard_exceptionsINS_29_AllocatorDestroyRangeReverseINS_9allocatorIN6Halide3VarEEEPS4_EEED1B8ue170006Ev, symObjAddr: 0x7C4C, symBinAddr: 0x100008588, symSize: 0x2C }
  - { offsetInCU: 0x43251, offset: 0x43251, size: 0x8, addend: 0x0, symName: __ZNSt3__128__exception_guard_exceptionsINS_29_AllocatorDestroyRangeReverseINS_9allocatorIN6Halide3VarEEEPS4_EEEC1B8ue170006ES7_, symObjAddr: 0x7C78, symBinAddr: 0x1000085B4, symSize: 0x34 }
  - { offsetInCU: 0x4328A, offset: 0x4328A, size: 0x8, addend: 0x0, symName: __ZNSt3__128__exception_guard_exceptionsINS_29_AllocatorDestroyRangeReverseINS_9allocatorIN6Halide3VarEEEPS4_EEEC2B8ue170006ES7_, symObjAddr: 0x7CAC, symBinAddr: 0x1000085E8, symSize: 0x30 }
  - { offsetInCU: 0x432C3, offset: 0x432C3, size: 0x8, addend: 0x0, symName: __ZNSt3__129_AllocatorDestroyRangeReverseINS_9allocatorIN6Halide3VarEEEPS3_EC2B8ue170006ERS4_RS5_S8_, symObjAddr: 0x7CDC, symBinAddr: 0x100008618, symSize: 0x38 }
  - { offsetInCU: 0x4331A, offset: 0x4331A, size: 0x8, addend: 0x0, symName: __ZNSt3__19allocatorIN6Halide3VarEE9constructB8ue170006IS2_JRKS2_EEEvPT_DpOT0_, symObjAddr: 0x7D14, symBinAddr: 0x100008650, symSize: 0x30 }
  - { offsetInCU: 0x43370, offset: 0x43370, size: 0x8, addend: 0x0, symName: __ZNSt3__128__exception_guard_exceptionsINS_29_AllocatorDestroyRangeReverseINS_9allocatorIN6Halide3VarEEEPS4_EEED2B8ue170006Ev, symObjAddr: 0x7D44, symBinAddr: 0x100008680, symSize: 0x50 }
  - { offsetInCU: 0x4339A, offset: 0x4339A, size: 0x8, addend: 0x0, symName: __ZNKSt3__129_AllocatorDestroyRangeReverseINS_9allocatorIN6Halide3VarEEEPS3_EclB8ue170006Ev, symObjAddr: 0x7D94, symBinAddr: 0x1000086D0, symSize: 0x68 }
  - { offsetInCU: 0x433C0, offset: 0x433C0, size: 0x8, addend: 0x0, symName: __ZNSt3__116reverse_iteratorIPN6Halide3VarEEC1B8ue170006ES3_, symObjAddr: 0x7E6C, symBinAddr: 0x1000087A8, symSize: 0x34 }
  - { offsetInCU: 0x433F8, offset: 0x433F8, size: 0x8, addend: 0x0, symName: __ZNSt3__116reverse_iteratorIPN6Halide3VarEEppB8ue170006Ev, symObjAddr: 0x7F0C, symBinAddr: 0x100008848, symSize: 0x20 }
  - { offsetInCU: 0x4341E, offset: 0x4341E, size: 0x8, addend: 0x0, symName: __ZNKSt3__116reverse_iteratorIPN6Halide3VarEE4baseB8ue170006Ev, symObjAddr: 0x7F2C, symBinAddr: 0x100008868, symSize: 0x18 }
  - { offsetInCU: 0x4344A, offset: 0x4344A, size: 0x8, addend: 0x0, symName: __ZNSt3__119__to_address_helperINS_16reverse_iteratorIPN6Halide3VarEEEvE6__callB8ue170006ERKS5_, symObjAddr: 0x7F44, symBinAddr: 0x100008880, symSize: 0x38 }
  - { offsetInCU: 0x4346D, offset: 0x4346D, size: 0x8, addend: 0x0, symName: __ZNKSt3__116reverse_iteratorIPN6Halide3VarEEptB8ue170006Ev, symObjAddr: 0x7F7C, symBinAddr: 0x1000088B8, symSize: 0x24 }
  - { offsetInCU: 0x43493, offset: 0x43493, size: 0x8, addend: 0x0, symName: __ZNKSt3__116reverse_iteratorIPN6Halide3VarEEdeB8ue170006Ev, symObjAddr: 0x7FA0, symBinAddr: 0x1000088DC, symSize: 0x28 }
  - { offsetInCU: 0x434C7, offset: 0x434C7, size: 0x8, addend: 0x0, symName: __ZNSt3__116reverse_iteratorIPN6Halide3VarEEC2B8ue170006ES3_, symObjAddr: 0x7FC8, symBinAddr: 0x100008904, symSize: 0x28 }
  - { offsetInCU: 0x434FF, offset: 0x434FF, size: 0x8, addend: 0x0, symName: __ZNSt3__118__unwrap_iter_implIPN6Halide3VarELb1EE8__unwrapB8ue170006ES3_, symObjAddr: 0x7FF0, symBinAddr: 0x10000892C, symSize: 0x24 }
  - { offsetInCU: 0x43522, offset: 0x43522, size: 0x8, addend: 0x0, symName: __ZNSt3__118__unwrap_iter_implIPN6Halide3VarELb1EE8__rewrapB8ue170006ES3_S3_, symObjAddr: 0x8014, symBinAddr: 0x100008950, symSize: 0x50 }
  - { offsetInCU: 0x43553, offset: 0x43553, size: 0x8, addend: 0x0, symName: __ZNSt3__16vectorIN6Halide3VarENS_9allocatorIS2_EEE21_ConstructTransactionD2B8ue170006Ev, symObjAddr: 0x8064, symBinAddr: 0x1000089A0, symSize: 0x20 }
  - { offsetInCU: 0x4357D, offset: 0x4357D, size: 0x8, addend: 0x0, symName: __ZNSt3__128__exception_guard_exceptionsINS_6vectorIN6Halide3VarENS_9allocatorIS3_EEE16__destroy_vectorEED2B8ue170006Ev, symObjAddr: 0x8084, symBinAddr: 0x1000089C0, symSize: 0x48 }
  - { offsetInCU: 0x435A7, offset: 0x435A7, size: 0x8, addend: 0x0, symName: __ZNSt3__16vectorIN6Halide3VarENS_9allocatorIS2_EEEC2ERKS5_, symObjAddr: 0x80CC, symBinAddr: 0x100008A08, symSize: 0x94 }
  - { offsetInCU: 0x435E2, offset: 0x435E2, size: 0x8, addend: 0x0, symName: __ZNSt3__116allocator_traitsINS_9allocatorIN6Halide3VarEEEE37select_on_container_copy_constructionB8ue170006IS4_vvEES4_RKS4_, symObjAddr: 0x8160, symBinAddr: 0x100008A9C, symSize: 0x10 }
  - { offsetInCU: 0x43617, offset: 0x43617, size: 0x8, addend: 0x0, symName: __ZNSt3__117__compressed_pairIPN6Halide3VarENS_9allocatorIS2_EEEC1B8ue170006IDnS5_EEOT_OT0_, symObjAddr: 0x8170, symBinAddr: 0x100008AAC, symSize: 0x3C }
  - { offsetInCU: 0x4366F, offset: 0x4366F, size: 0x8, addend: 0x0, symName: __ZNSt3__16vectorIN6Halide3VarENS_9allocatorIS2_EEE16__init_with_sizeB8ue170006IPS2_S7_EEvT_T0_m, symObjAddr: 0x81AC, symBinAddr: 0x100008AE8, symSize: 0xB8 }
  - { offsetInCU: 0x436E3, offset: 0x436E3, size: 0x8, addend: 0x0, symName: __ZNSt3__117__compressed_pairIPN6Halide3VarENS_9allocatorIS2_EEEC2B8ue170006IDnS5_EEOT_OT0_, symObjAddr: 0x8264, symBinAddr: 0x100008BA0, symSize: 0x44 }
  - { offsetInCU: 0x4373B, offset: 0x4373B, size: 0x8, addend: 0x0, symName: __ZNSt3__122__compressed_pair_elemINS_9allocatorIN6Halide3VarEEELi1ELb1EEC2B8ue170006IS4_vEEOT_, symObjAddr: 0x82A8, symBinAddr: 0x100008BE4, symSize: 0x18 }
  - { offsetInCU: 0x4377D, offset: 0x4377D, size: 0x8, addend: 0x0, symName: __ZNSt3__16vectorIN6Halide3VarENS_9allocatorIS2_EEE18__construct_at_endIPS2_S7_EEvT_T0_m, symObjAddr: 0x82C0, symBinAddr: 0x100008BFC, symSize: 0x8C }
  - { offsetInCU: 0x43816, offset: 0x43816, size: 0x8, addend: 0x0, symName: __ZNSt3__14pairIPN6Halide3VarES3_EC1B8ue170006IS3_S3_LPv0EEEOT_OT0_, symObjAddr: 0x8558, symBinAddr: 0x100008E94, symSize: 0x3C }
  - { offsetInCU: 0x43874, offset: 0x43874, size: 0x8, addend: 0x0, symName: __ZNSt3__14pairIPN6Halide3VarES3_EC2B8ue170006IS3_S3_LPv0EEEOT_OT0_, symObjAddr: 0x8594, symBinAddr: 0x100008ED0, symSize: 0x34 }
  - { offsetInCU: 0x438D2, offset: 0x438D2, size: 0x8, addend: 0x0, symName: __ZNSt3__116allocator_traitsINS_9allocatorIN6Halide3VarEEEE9constructB8ue170006IS3_JRS3_EvEEvRS4_PT_DpOT0_, symObjAddr: 0x85C8, symBinAddr: 0x100008F04, symSize: 0x34 }
  - { offsetInCU: 0x43929, offset: 0x43929, size: 0x8, addend: 0x0, symName: __ZNSt3__19allocatorIN6Halide3VarEE9constructB8ue170006IS2_JRS2_EEEvPT_DpOT0_, symObjAddr: 0x85FC, symBinAddr: 0x100008F38, symSize: 0x30 }
  - { offsetInCU: 0x4397F, offset: 0x4397F, size: 0x8, addend: 0x0, symName: __ZNK6Halide4FuncclIJRNS_4RDomEEEENSt3__19enable_ifIXsr8Internal19all_are_convertibleINS_4ExprEDpT_EE5valueENS_7FuncRefEE4typeERKS6_DpOS7_, symObjAddr: 0x862C, symBinAddr: 0x100008F68, symSize: 0x210 }
  - { offsetInCU: 0x439DE, offset: 0x439DE, size: 0x8, addend: 0x0, symName: __ZNK6Halide3VarcvRKNS_4ExprEEv, symObjAddr: 0x883C, symBinAddr: 0x100009178, symSize: 0x14 }
  - { offsetInCU: 0x43A04, offset: 0x43A04, size: 0x8, addend: 0x0, symName: __ZNSt3__16vectorIN6Halide4ExprENS_9allocatorIS2_EEEC1B8ue170006ESt16initializer_listIS2_E, symObjAddr: 0x8850, symBinAddr: 0x10000918C, symSize: 0x3C }
  - { offsetInCU: 0x43A3F, offset: 0x43A3F, size: 0x8, addend: 0x0, symName: __ZNSt3__16vectorIN6Halide4ExprENS_9allocatorIS2_EEEC1ERKS5_, symObjAddr: 0x888C, symBinAddr: 0x1000091C8, symSize: 0x34 }
  - { offsetInCU: 0x43A7A, offset: 0x43A7A, size: 0x8, addend: 0x0, symName: __ZNSt3__16vectorIN6Halide4ExprENS_9allocatorIS2_EEEC2B8ue170006ESt16initializer_listIS2_E, symObjAddr: 0x88C0, symBinAddr: 0x1000091FC, symSize: 0x120 }
  - { offsetInCU: 0x43ACA, offset: 0x43ACA, size: 0x8, addend: 0x0, symName: __ZNSt3__117__compressed_pairIPN6Halide4ExprENS_9allocatorIS2_EEEC1B8ue170006IDnNS_18__default_init_tagEEEOT_OT0_, symObjAddr: 0x89E0, symBinAddr: 0x10000931C, symSize: 0x3C }
  - { offsetInCU: 0x43B22, offset: 0x43B22, size: 0x8, addend: 0x0, symName: __ZNKSt16initializer_listIN6Halide4ExprEE4sizeB8ue170006Ev, symObjAddr: 0x8A5C, symBinAddr: 0x100009398, symSize: 0x18 }
  - { offsetInCU: 0x43B48, offset: 0x43B48, size: 0x8, addend: 0x0, symName: __ZNSt3__16vectorIN6Halide4ExprENS_9allocatorIS2_EEE11__vallocateB8ue170006Em, symObjAddr: 0x8A74, symBinAddr: 0x1000093B0, symSize: 0xAC }
  - { offsetInCU: 0x43B8C, offset: 0x43B8C, size: 0x8, addend: 0x0, symName: __ZNSt3__16vectorIN6Halide4ExprENS_9allocatorIS2_EEE18__construct_at_endIPKS2_S8_EEvT_T0_m, symObjAddr: 0x8B20, symBinAddr: 0x10000945C, symSize: 0x8C }
  - { offsetInCU: 0x43C02, offset: 0x43C02, size: 0x8, addend: 0x0, symName: __ZNKSt16initializer_listIN6Halide4ExprEE5beginB8ue170006Ev, symObjAddr: 0x8BAC, symBinAddr: 0x1000094E8, symSize: 0x18 }
  - { offsetInCU: 0x43C28, offset: 0x43C28, size: 0x8, addend: 0x0, symName: __ZNKSt16initializer_listIN6Halide4ExprEE3endB8ue170006Ev, symObjAddr: 0x8BC4, symBinAddr: 0x100009500, symSize: 0x20 }
  - { offsetInCU: 0x43C4E, offset: 0x43C4E, size: 0x8, addend: 0x0, symName: __ZNSt3__128__exception_guard_exceptionsINS_6vectorIN6Halide4ExprENS_9allocatorIS3_EEE16__destroy_vectorEE10__completeB8ue170006Ev, symObjAddr: 0x8BE4, symBinAddr: 0x100009520, symSize: 0x1C }
  - { offsetInCU: 0x43C74, offset: 0x43C74, size: 0x8, addend: 0x0, symName: __ZNSt3__128__exception_guard_exceptionsINS_6vectorIN6Halide4ExprENS_9allocatorIS3_EEE16__destroy_vectorEED1B8ue170006Ev, symObjAddr: 0x8C00, symBinAddr: 0x10000953C, symSize: 0x2C }
  - { offsetInCU: 0x43C9E, offset: 0x43C9E, size: 0x8, addend: 0x0, symName: __ZNSt3__117__compressed_pairIPN6Halide4ExprENS_9allocatorIS2_EEEC2B8ue170006IDnNS_18__default_init_tagEEEOT_OT0_, symObjAddr: 0x8C2C, symBinAddr: 0x100009568, symSize: 0x40 }
  - { offsetInCU: 0x43CF6, offset: 0x43CF6, size: 0x8, addend: 0x0, symName: __ZNSt3__122__compressed_pair_elemIPN6Halide4ExprELi0ELb0EEC2B8ue170006IDnvEEOT_, symObjAddr: 0x8C6C, symBinAddr: 0x1000095A8, symSize: 0x1C }
  - { offsetInCU: 0x43D38, offset: 0x43D38, size: 0x8, addend: 0x0, symName: __ZNSt3__122__compressed_pair_elemINS_9allocatorIN6Halide4ExprEEELi1ELb1EEC2B8ue170006ENS_18__default_init_tagE, symObjAddr: 0x8C88, symBinAddr: 0x1000095C4, symSize: 0x2C }
  - { offsetInCU: 0x43D6D, offset: 0x43D6D, size: 0x8, addend: 0x0, symName: __ZNSt3__19allocatorIN6Halide4ExprEEC2B8ue170006Ev, symObjAddr: 0x8CB4, symBinAddr: 0x1000095F0, symSize: 0x2C }
  - { offsetInCU: 0x43D97, offset: 0x43D97, size: 0x8, addend: 0x0, symName: __ZNSt3__116__non_trivial_ifILb1ENS_9allocatorIN6Halide4ExprEEEEC2B8ue170006Ev, symObjAddr: 0x8CE0, symBinAddr: 0x10000961C, symSize: 0x14 }
  - { offsetInCU: 0x43DC1, offset: 0x43DC1, size: 0x8, addend: 0x0, symName: __ZNSt3__128__exception_guard_exceptionsINS_6vectorIN6Halide4ExprENS_9allocatorIS3_EEE16__destroy_vectorEEC1B8ue170006ES7_, symObjAddr: 0x8CF4, symBinAddr: 0x100009630, symSize: 0x34 }
  - { offsetInCU: 0x43DF9, offset: 0x43DF9, size: 0x8, addend: 0x0, symName: __ZNSt3__128__exception_guard_exceptionsINS_6vectorIN6Halide4ExprENS_9allocatorIS3_EEE16__destroy_vectorEEC2B8ue170006ES7_, symObjAddr: 0x8D28, symBinAddr: 0x100009664, symSize: 0x24 }
  - { offsetInCU: 0x43E31, offset: 0x43E31, size: 0x8, addend: 0x0, symName: __ZNKSt3__16vectorIN6Halide4ExprENS_9allocatorIS2_EEE8max_sizeEv, symObjAddr: 0x8D4C, symBinAddr: 0x100009688, symSize: 0x60 }
  - { offsetInCU: 0x43E59, offset: 0x43E59, size: 0x8, addend: 0x0, symName: __ZNKSt3__16vectorIN6Halide4ExprENS_9allocatorIS2_EEE20__throw_length_errorB8ue170006Ev, symObjAddr: 0x8DAC, symBinAddr: 0x1000096E8, symSize: 0x1C }
  - { offsetInCU: 0x43E7F, offset: 0x43E7F, size: 0x8, addend: 0x0, symName: __ZNSt3__16vectorIN6Halide4ExprENS_9allocatorIS2_EEE9__end_capB8ue170006Ev, symObjAddr: 0x8E08, symBinAddr: 0x100009744, symSize: 0x28 }
  - { offsetInCU: 0x43EA5, offset: 0x43EA5, size: 0x8, addend: 0x0, symName: __ZNKSt3__16vectorIN6Halide4ExprENS_9allocatorIS2_EEE14__annotate_newB8ue170006Em, symObjAddr: 0x8E30, symBinAddr: 0x10000976C, symSize: 0xAC }
  - { offsetInCU: 0x43EE5, offset: 0x43EE5, size: 0x8, addend: 0x0, symName: __ZNSt3__116allocator_traitsINS_9allocatorIN6Halide4ExprEEEE8max_sizeB8ue170006IS4_vEEmRKS4_, symObjAddr: 0x8EDC, symBinAddr: 0x100009818, symSize: 0x24 }
  - { offsetInCU: 0x43F13, offset: 0x43F13, size: 0x8, addend: 0x0, symName: __ZNKSt3__16vectorIN6Halide4ExprENS_9allocatorIS2_EEE7__allocB8ue170006Ev, symObjAddr: 0x8F00, symBinAddr: 0x10000983C, symSize: 0x28 }
  - { offsetInCU: 0x43F39, offset: 0x43F39, size: 0x8, addend: 0x0, symName: __ZNKSt3__19allocatorIN6Halide4ExprEE8max_sizeB8ue170006Ev, symObjAddr: 0x8F28, symBinAddr: 0x100009864, symSize: 0x14 }
  - { offsetInCU: 0x43F5F, offset: 0x43F5F, size: 0x8, addend: 0x0, symName: __ZNKSt3__117__compressed_pairIPN6Halide4ExprENS_9allocatorIS2_EEE6secondB8ue170006Ev, symObjAddr: 0x8F3C, symBinAddr: 0x100009878, symSize: 0x24 }
  - { offsetInCU: 0x43F85, offset: 0x43F85, size: 0x8, addend: 0x0, symName: __ZNKSt3__122__compressed_pair_elemINS_9allocatorIN6Halide4ExprEEELi1ELb1EE5__getB8ue170006Ev, symObjAddr: 0x8F60, symBinAddr: 0x10000989C, symSize: 0x14 }
  - { offsetInCU: 0x43FAB, offset: 0x43FAB, size: 0x8, addend: 0x0, symName: __ZNSt3__19allocatorIN6Halide4ExprEE8allocateB8ue170006Em, symObjAddr: 0x8F74, symBinAddr: 0x1000098B0, symSize: 0x58 }
  - { offsetInCU: 0x43FDF, offset: 0x43FDF, size: 0x8, addend: 0x0, symName: __ZNSt3__117__compressed_pairIPN6Halide4ExprENS_9allocatorIS2_EEE5firstB8ue170006Ev, symObjAddr: 0x8FCC, symBinAddr: 0x100009908, symSize: 0x24 }
  - { offsetInCU: 0x44005, offset: 0x44005, size: 0x8, addend: 0x0, symName: __ZNSt3__122__compressed_pair_elemIPN6Halide4ExprELi0ELb0EE5__getB8ue170006Ev, symObjAddr: 0x8FF0, symBinAddr: 0x10000992C, symSize: 0x14 }
  - { offsetInCU: 0x44047, offset: 0x44047, size: 0x8, addend: 0x0, symName: __ZNSt3__16vectorIN6Halide4ExprENS_9allocatorIS2_EEE21_ConstructTransactionC1B8ue170006ERS5_m, symObjAddr: 0x9004, symBinAddr: 0x100009940, symSize: 0x3C }
  - { offsetInCU: 0x4408F, offset: 0x4408F, size: 0x8, addend: 0x0, symName: __ZNSt3__16vectorIN6Halide4ExprENS_9allocatorIS2_EEE21_ConstructTransactionD1B8ue170006Ev, symObjAddr: 0x90C0, symBinAddr: 0x1000099FC, symSize: 0x2C }
  - { offsetInCU: 0x440B9, offset: 0x440B9, size: 0x8, addend: 0x0, symName: __ZNSt3__16vectorIN6Halide4ExprENS_9allocatorIS2_EEE21_ConstructTransactionC2B8ue170006ERS5_m, symObjAddr: 0x90EC, symBinAddr: 0x100009A28, symSize: 0x44 }
  - { offsetInCU: 0x44124, offset: 0x44124, size: 0x8, addend: 0x0, symName: __ZNSt3__14pairIPKN6Halide4ExprES4_EC1B8ue170006IS4_S4_LPv0EEEOT_OT0_, symObjAddr: 0x9340, symBinAddr: 0x100009C7C, symSize: 0x3C }
  - { offsetInCU: 0x44182, offset: 0x44182, size: 0x8, addend: 0x0, symName: __ZNSt3__14pairIPKN6Halide4ExprES4_EC2B8ue170006IS4_S4_LPv0EEEOT_OT0_, symObjAddr: 0x937C, symBinAddr: 0x100009CB8, symSize: 0x34 }
  - { offsetInCU: 0x441E0, offset: 0x441E0, size: 0x8, addend: 0x0, symName: __ZNSt3__118__unwrap_iter_implIPKN6Halide4ExprELb1EE8__unwrapB8ue170006ES4_, symObjAddr: 0x93B0, symBinAddr: 0x100009CEC, symSize: 0x24 }
  - { offsetInCU: 0x44203, offset: 0x44203, size: 0x8, addend: 0x0, symName: __ZNSt3__129_AllocatorDestroyRangeReverseINS_9allocatorIN6Halide4ExprEEEPS3_EC1B8ue170006ERS4_RS5_S8_, symObjAddr: 0x9434, symBinAddr: 0x100009D70, symSize: 0x44 }
  - { offsetInCU: 0x4425A, offset: 0x4425A, size: 0x8, addend: 0x0, symName: __ZNSt3__116allocator_traitsINS_9allocatorIN6Halide4ExprEEEE9constructB8ue170006IS3_JRKS3_EvEEvRS4_PT_DpOT0_, symObjAddr: 0x9478, symBinAddr: 0x100009DB4, symSize: 0x34 }
  - { offsetInCU: 0x442B1, offset: 0x442B1, size: 0x8, addend: 0x0, symName: __ZNSt3__128__exception_guard_exceptionsINS_29_AllocatorDestroyRangeReverseINS_9allocatorIN6Halide4ExprEEEPS4_EEE10__completeB8ue170006Ev, symObjAddr: 0x94AC, symBinAddr: 0x100009DE8, symSize: 0x1C }
  - { offsetInCU: 0x442D7, offset: 0x442D7, size: 0x8, addend: 0x0, symName: __ZNSt3__128__exception_guard_exceptionsINS_29_AllocatorDestroyRangeReverseINS_9allocatorIN6Halide4ExprEEEPS4_EEED1B8ue170006Ev, symObjAddr: 0x94C8, symBinAddr: 0x100009E04, symSize: 0x2C }
  - { offsetInCU: 0x44301, offset: 0x44301, size: 0x8, addend: 0x0, symName: __ZNSt3__128__exception_guard_exceptionsINS_29_AllocatorDestroyRangeReverseINS_9allocatorIN6Halide4ExprEEEPS4_EEEC1B8ue170006ES7_, symObjAddr: 0x94F4, symBinAddr: 0x100009E30, symSize: 0x34 }
  - { offsetInCU: 0x4433A, offset: 0x4433A, size: 0x8, addend: 0x0, symName: __ZNSt3__128__exception_guard_exceptionsINS_29_AllocatorDestroyRangeReverseINS_9allocatorIN6Halide4ExprEEEPS4_EEEC2B8ue170006ES7_, symObjAddr: 0x9528, symBinAddr: 0x100009E64, symSize: 0x30 }
  - { offsetInCU: 0x44373, offset: 0x44373, size: 0x8, addend: 0x0, symName: __ZNSt3__129_AllocatorDestroyRangeReverseINS_9allocatorIN6Halide4ExprEEEPS3_EC2B8ue170006ERS4_RS5_S8_, symObjAddr: 0x9558, symBinAddr: 0x100009E94, symSize: 0x38 }
  - { offsetInCU: 0x443CA, offset: 0x443CA, size: 0x8, addend: 0x0, symName: __ZNSt3__19allocatorIN6Halide4ExprEE9constructB8ue170006IS2_JRKS2_EEEvPT_DpOT0_, symObjAddr: 0x9590, symBinAddr: 0x100009ECC, symSize: 0x30 }
  - { offsetInCU: 0x44420, offset: 0x44420, size: 0x8, addend: 0x0, symName: __ZNSt3__128__exception_guard_exceptionsINS_29_AllocatorDestroyRangeReverseINS_9allocatorIN6Halide4ExprEEEPS4_EEED2B8ue170006Ev, symObjAddr: 0x95C0, symBinAddr: 0x100009EFC, symSize: 0x50 }
  - { offsetInCU: 0x4444A, offset: 0x4444A, size: 0x8, addend: 0x0, symName: __ZNKSt3__129_AllocatorDestroyRangeReverseINS_9allocatorIN6Halide4ExprEEEPS3_EclB8ue170006Ev, symObjAddr: 0x9610, symBinAddr: 0x100009F4C, symSize: 0x68 }
  - { offsetInCU: 0x44470, offset: 0x44470, size: 0x8, addend: 0x0, symName: __ZNSt3__116reverse_iteratorIPN6Halide4ExprEEC1B8ue170006ES3_, symObjAddr: 0x96E8, symBinAddr: 0x10000A024, symSize: 0x34 }
  - { offsetInCU: 0x444A8, offset: 0x444A8, size: 0x8, addend: 0x0, symName: __ZNSt3__116reverse_iteratorIPN6Halide4ExprEEppB8ue170006Ev, symObjAddr: 0x9788, symBinAddr: 0x10000A0C4, symSize: 0x20 }
  - { offsetInCU: 0x444CE, offset: 0x444CE, size: 0x8, addend: 0x0, symName: __ZNKSt3__116reverse_iteratorIPN6Halide4ExprEE4baseB8ue170006Ev, symObjAddr: 0x97A8, symBinAddr: 0x10000A0E4, symSize: 0x18 }
  - { offsetInCU: 0x444FA, offset: 0x444FA, size: 0x8, addend: 0x0, symName: __ZNSt3__119__to_address_helperINS_16reverse_iteratorIPN6Halide4ExprEEEvE6__callB8ue170006ERKS5_, symObjAddr: 0x97C0, symBinAddr: 0x10000A0FC, symSize: 0x38 }
  - { offsetInCU: 0x4451D, offset: 0x4451D, size: 0x8, addend: 0x0, symName: __ZNKSt3__116reverse_iteratorIPN6Halide4ExprEEptB8ue170006Ev, symObjAddr: 0x97F8, symBinAddr: 0x10000A134, symSize: 0x24 }
  - { offsetInCU: 0x44543, offset: 0x44543, size: 0x8, addend: 0x0, symName: __ZNKSt3__116reverse_iteratorIPN6Halide4ExprEEdeB8ue170006Ev, symObjAddr: 0x981C, symBinAddr: 0x10000A158, symSize: 0x28 }
  - { offsetInCU: 0x44577, offset: 0x44577, size: 0x8, addend: 0x0, symName: __ZNSt3__116reverse_iteratorIPN6Halide4ExprEEC2B8ue170006ES3_, symObjAddr: 0x9844, symBinAddr: 0x10000A180, symSize: 0x28 }
  - { offsetInCU: 0x445AF, offset: 0x445AF, size: 0x8, addend: 0x0, symName: __ZNSt3__118__unwrap_iter_implIPN6Halide4ExprELb1EE8__unwrapB8ue170006ES3_, symObjAddr: 0x986C, symBinAddr: 0x10000A1A8, symSize: 0x24 }
  - { offsetInCU: 0x445D2, offset: 0x445D2, size: 0x8, addend: 0x0, symName: __ZNSt3__118__unwrap_iter_implIPN6Halide4ExprELb1EE8__rewrapB8ue170006ES3_S3_, symObjAddr: 0x9890, symBinAddr: 0x10000A1CC, symSize: 0x50 }
  - { offsetInCU: 0x44603, offset: 0x44603, size: 0x8, addend: 0x0, symName: __ZNSt3__16vectorIN6Halide4ExprENS_9allocatorIS2_EEE21_ConstructTransactionD2B8ue170006Ev, symObjAddr: 0x98E0, symBinAddr: 0x10000A21C, symSize: 0x20 }
  - { offsetInCU: 0x4462D, offset: 0x4462D, size: 0x8, addend: 0x0, symName: __ZNSt3__128__exception_guard_exceptionsINS_6vectorIN6Halide4ExprENS_9allocatorIS3_EEE16__destroy_vectorEED2B8ue170006Ev, symObjAddr: 0x9900, symBinAddr: 0x10000A23C, symSize: 0x48 }
  - { offsetInCU: 0x44657, offset: 0x44657, size: 0x8, addend: 0x0, symName: __ZNSt3__16vectorIN6Halide4ExprENS_9allocatorIS2_EEEC2ERKS5_, symObjAddr: 0x9948, symBinAddr: 0x10000A284, symSize: 0x94 }
  - { offsetInCU: 0x44692, offset: 0x44692, size: 0x8, addend: 0x0, symName: __ZNSt3__116allocator_traitsINS_9allocatorIN6Halide4ExprEEEE37select_on_container_copy_constructionB8ue170006IS4_vvEES4_RKS4_, symObjAddr: 0x99DC, symBinAddr: 0x10000A318, symSize: 0x10 }
  - { offsetInCU: 0x446C7, offset: 0x446C7, size: 0x8, addend: 0x0, symName: __ZNSt3__117__compressed_pairIPN6Halide4ExprENS_9allocatorIS2_EEEC1B8ue170006IDnS5_EEOT_OT0_, symObjAddr: 0x99EC, symBinAddr: 0x10000A328, symSize: 0x3C }
  - { offsetInCU: 0x4471F, offset: 0x4471F, size: 0x8, addend: 0x0, symName: __ZNSt3__16vectorIN6Halide4ExprENS_9allocatorIS2_EEE16__init_with_sizeB8ue170006IPS2_S7_EEvT_T0_m, symObjAddr: 0x9A28, symBinAddr: 0x10000A364, symSize: 0xB8 }
  - { offsetInCU: 0x44793, offset: 0x44793, size: 0x8, addend: 0x0, symName: __ZNSt3__117__compressed_pairIPN6Halide4ExprENS_9allocatorIS2_EEEC2B8ue170006IDnS5_EEOT_OT0_, symObjAddr: 0x9AE0, symBinAddr: 0x10000A41C, symSize: 0x44 }
  - { offsetInCU: 0x447EB, offset: 0x447EB, size: 0x8, addend: 0x0, symName: __ZNSt3__122__compressed_pair_elemINS_9allocatorIN6Halide4ExprEEELi1ELb1EEC2B8ue170006IS4_vEEOT_, symObjAddr: 0x9B24, symBinAddr: 0x10000A460, symSize: 0x18 }
  - { offsetInCU: 0x4482D, offset: 0x4482D, size: 0x8, addend: 0x0, symName: __ZNSt3__16vectorIN6Halide4ExprENS_9allocatorIS2_EEE18__construct_at_endIPS2_S7_EEvT_T0_m, symObjAddr: 0x9B3C, symBinAddr: 0x10000A478, symSize: 0x8C }
  - { offsetInCU: 0x448C6, offset: 0x448C6, size: 0x8, addend: 0x0, symName: __ZNSt3__14pairIPN6Halide4ExprES3_EC1B8ue170006IS3_S3_LPv0EEEOT_OT0_, symObjAddr: 0x9DD4, symBinAddr: 0x10000A710, symSize: 0x3C }
  - { offsetInCU: 0x44924, offset: 0x44924, size: 0x8, addend: 0x0, symName: __ZNSt3__14pairIPN6Halide4ExprES3_EC2B8ue170006IS3_S3_LPv0EEEOT_OT0_, symObjAddr: 0x9E10, symBinAddr: 0x10000A74C, symSize: 0x34 }
  - { offsetInCU: 0x44982, offset: 0x44982, size: 0x8, addend: 0x0, symName: __ZNSt3__116allocator_traitsINS_9allocatorIN6Halide4ExprEEEE9constructB8ue170006IS3_JRS3_EvEEvRS4_PT_DpOT0_, symObjAddr: 0x9E44, symBinAddr: 0x10000A780, symSize: 0x34 }
  - { offsetInCU: 0x449D9, offset: 0x449D9, size: 0x8, addend: 0x0, symName: __ZNSt3__19allocatorIN6Halide4ExprEE9constructB8ue170006IS2_JRS2_EEEvPT_DpOT0_, symObjAddr: 0x9E78, symBinAddr: 0x10000A7B4, symSize: 0x30 }
  - { offsetInCU: 0x44A2F, offset: 0x44A2F, size: 0x8, addend: 0x0, symName: __ZNK6Halide4FuncclIJRNS_3VarEEEENSt3__19enable_ifIXsr8Internal19all_are_convertibleINS_4ExprEDpT_EE5valueENS_7FuncRefEE4typeERKS6_DpOS7_, symObjAddr: 0x9EA8, symBinAddr: 0x10000A7E4, symSize: 0x1C0 }
  - { offsetInCU: 0x44A8E, offset: 0x44A8E, size: 0x8, addend: 0x0, symName: __ZN6Halide9VarOrRVarC1ERKS0_, symObjAddr: 0xA068, symBinAddr: 0x10000A9A4, symSize: 0x34 }
  - { offsetInCU: 0x44AC4, offset: 0x44AC4, size: 0x8, addend: 0x0, symName: __ZNSt3__16vectorIN6Halide9VarOrRVarENS_9allocatorIS2_EEEC1B8ue170006ESt16initializer_listIS2_E, symObjAddr: 0xA09C, symBinAddr: 0x10000A9D8, symSize: 0x3C }
  - { offsetInCU: 0x44AFF, offset: 0x44AFF, size: 0x8, addend: 0x0, symName: __ZNSt3__16vectorIN6Halide9VarOrRVarENS_9allocatorIS2_EEED1B8ue170006Ev, symObjAddr: 0xA0D8, symBinAddr: 0x10000AA14, symSize: 0x2C }
  - { offsetInCU: 0x44B29, offset: 0x44B29, size: 0x8, addend: 0x0, symName: __ZN6Halide9VarOrRVarC2ERKS0_, symObjAddr: 0xA104, symBinAddr: 0x10000AA40, symSize: 0x80 }
  - { offsetInCU: 0x44B5F, offset: 0x44B5F, size: 0x8, addend: 0x0, symName: __ZN6Halide4RVarC1ERKS0_, symObjAddr: 0xA184, symBinAddr: 0x10000AAC0, symSize: 0x34 }
  - { offsetInCU: 0x44B95, offset: 0x44B95, size: 0x8, addend: 0x0, symName: __ZN6Halide4RVarC2ERKS0_, symObjAddr: 0xA1B8, symBinAddr: 0x10000AAF4, symSize: 0x54 }
  - { offsetInCU: 0x44BCB, offset: 0x44BCB, size: 0x8, addend: 0x0, symName: __ZN6Halide8Internal15ReductionDomainC1ERKS1_, symObjAddr: 0xA20C, symBinAddr: 0x10000AB48, symSize: 0x34 }
  - { offsetInCU: 0x44C4F, offset: 0x44C4F, size: 0x8, addend: 0x0, symName: __ZN6Halide8Internal15ReductionDomainC2ERKS1_, symObjAddr: 0xA240, symBinAddr: 0x10000AB7C, symSize: 0x60 }
  - { offsetInCU: 0x44CD7, offset: 0x44CD7, size: 0x8, addend: 0x0, symName: __ZNSt3__16vectorIN6Halide9VarOrRVarENS_9allocatorIS2_EEEC2B8ue170006ESt16initializer_listIS2_E, symObjAddr: 0xA2A0, symBinAddr: 0x10000ABDC, symSize: 0x120 }
  - { offsetInCU: 0x44D27, offset: 0x44D27, size: 0x8, addend: 0x0, symName: __ZNSt3__117__compressed_pairIPN6Halide9VarOrRVarENS_9allocatorIS2_EEEC1B8ue170006IDnNS_18__default_init_tagEEEOT_OT0_, symObjAddr: 0xA3C0, symBinAddr: 0x10000ACFC, symSize: 0x3C }
  - { offsetInCU: 0x44D7F, offset: 0x44D7F, size: 0x8, addend: 0x0, symName: __ZNSt3__16vectorIN6Halide9VarOrRVarENS_9allocatorIS2_EEE16__destroy_vectorC1B8ue170006ERS5_, symObjAddr: 0xA43C, symBinAddr: 0x10000AD78, symSize: 0x34 }
  - { offsetInCU: 0x44DB8, offset: 0x44DB8, size: 0x8, addend: 0x0, symName: __ZNKSt16initializer_listIN6Halide9VarOrRVarEE4sizeB8ue170006Ev, symObjAddr: 0xA470, symBinAddr: 0x10000ADAC, symSize: 0x18 }
  - { offsetInCU: 0x44DDE, offset: 0x44DDE, size: 0x8, addend: 0x0, symName: __ZNSt3__16vectorIN6Halide9VarOrRVarENS_9allocatorIS2_EEE11__vallocateB8ue170006Em, symObjAddr: 0xA488, symBinAddr: 0x10000ADC4, symSize: 0xB4 }
  - { offsetInCU: 0x44E22, offset: 0x44E22, size: 0x8, addend: 0x0, symName: __ZNSt3__16vectorIN6Halide9VarOrRVarENS_9allocatorIS2_EEE18__construct_at_endIPKS2_S8_EEvT_T0_m, symObjAddr: 0xA53C, symBinAddr: 0x10000AE78, symSize: 0x8C }
  - { offsetInCU: 0x44E98, offset: 0x44E98, size: 0x8, addend: 0x0, symName: __ZNKSt16initializer_listIN6Halide9VarOrRVarEE5beginB8ue170006Ev, symObjAddr: 0xA5C8, symBinAddr: 0x10000AF04, symSize: 0x18 }
  - { offsetInCU: 0x44EBE, offset: 0x44EBE, size: 0x8, addend: 0x0, symName: __ZNKSt16initializer_listIN6Halide9VarOrRVarEE3endB8ue170006Ev, symObjAddr: 0xA5E0, symBinAddr: 0x10000AF1C, symSize: 0x28 }
  - { offsetInCU: 0x44EE4, offset: 0x44EE4, size: 0x8, addend: 0x0, symName: __ZNSt3__128__exception_guard_exceptionsINS_6vectorIN6Halide9VarOrRVarENS_9allocatorIS3_EEE16__destroy_vectorEE10__completeB8ue170006Ev, symObjAddr: 0xA608, symBinAddr: 0x10000AF44, symSize: 0x1C }
  - { offsetInCU: 0x44F0A, offset: 0x44F0A, size: 0x8, addend: 0x0, symName: __ZNSt3__128__exception_guard_exceptionsINS_6vectorIN6Halide9VarOrRVarENS_9allocatorIS3_EEE16__destroy_vectorEED1B8ue170006Ev, symObjAddr: 0xA624, symBinAddr: 0x10000AF60, symSize: 0x2C }
  - { offsetInCU: 0x44F34, offset: 0x44F34, size: 0x8, addend: 0x0, symName: __ZNSt3__117__compressed_pairIPN6Halide9VarOrRVarENS_9allocatorIS2_EEEC2B8ue170006IDnNS_18__default_init_tagEEEOT_OT0_, symObjAddr: 0xA650, symBinAddr: 0x10000AF8C, symSize: 0x40 }
  - { offsetInCU: 0x44F8C, offset: 0x44F8C, size: 0x8, addend: 0x0, symName: __ZNSt3__122__compressed_pair_elemIPN6Halide9VarOrRVarELi0ELb0EEC2B8ue170006IDnvEEOT_, symObjAddr: 0xA690, symBinAddr: 0x10000AFCC, symSize: 0x1C }
  - { offsetInCU: 0x44FCE, offset: 0x44FCE, size: 0x8, addend: 0x0, symName: __ZNSt3__122__compressed_pair_elemINS_9allocatorIN6Halide9VarOrRVarEEELi1ELb1EEC2B8ue170006ENS_18__default_init_tagE, symObjAddr: 0xA6AC, symBinAddr: 0x10000AFE8, symSize: 0x2C }
  - { offsetInCU: 0x45003, offset: 0x45003, size: 0x8, addend: 0x0, symName: __ZNSt3__19allocatorIN6Halide9VarOrRVarEEC2B8ue170006Ev, symObjAddr: 0xA6D8, symBinAddr: 0x10000B014, symSize: 0x2C }
  - { offsetInCU: 0x4502D, offset: 0x4502D, size: 0x8, addend: 0x0, symName: __ZNSt3__116__non_trivial_ifILb1ENS_9allocatorIN6Halide9VarOrRVarEEEEC2B8ue170006Ev, symObjAddr: 0xA704, symBinAddr: 0x10000B040, symSize: 0x14 }
  - { offsetInCU: 0x45057, offset: 0x45057, size: 0x8, addend: 0x0, symName: __ZNSt3__128__exception_guard_exceptionsINS_6vectorIN6Halide9VarOrRVarENS_9allocatorIS3_EEE16__destroy_vectorEEC1B8ue170006ES7_, symObjAddr: 0xA718, symBinAddr: 0x10000B054, symSize: 0x34 }
  - { offsetInCU: 0x4508F, offset: 0x4508F, size: 0x8, addend: 0x0, symName: __ZNSt3__128__exception_guard_exceptionsINS_6vectorIN6Halide9VarOrRVarENS_9allocatorIS3_EEE16__destroy_vectorEEC2B8ue170006ES7_, symObjAddr: 0xA74C, symBinAddr: 0x10000B088, symSize: 0x24 }
  - { offsetInCU: 0x450C7, offset: 0x450C7, size: 0x8, addend: 0x0, symName: __ZNSt3__16vectorIN6Halide9VarOrRVarENS_9allocatorIS2_EEE16__destroy_vectorC2B8ue170006ERS5_, symObjAddr: 0xA770, symBinAddr: 0x10000B0AC, symSize: 0x20 }
  - { offsetInCU: 0x45100, offset: 0x45100, size: 0x8, addend: 0x0, symName: __ZNKSt3__16vectorIN6Halide9VarOrRVarENS_9allocatorIS2_EEE8max_sizeEv, symObjAddr: 0xA790, symBinAddr: 0x10000B0CC, symSize: 0x60 }
  - { offsetInCU: 0x45128, offset: 0x45128, size: 0x8, addend: 0x0, symName: __ZNKSt3__16vectorIN6Halide9VarOrRVarENS_9allocatorIS2_EEE20__throw_length_errorB8ue170006Ev, symObjAddr: 0xA7F0, symBinAddr: 0x10000B12C, symSize: 0x1C }
  - { offsetInCU: 0x4514E, offset: 0x4514E, size: 0x8, addend: 0x0, symName: __ZNSt3__16vectorIN6Halide9VarOrRVarENS_9allocatorIS2_EEE7__allocB8ue170006Ev, symObjAddr: 0xA84C, symBinAddr: 0x10000B188, symSize: 0x28 }
  - { offsetInCU: 0x45174, offset: 0x45174, size: 0x8, addend: 0x0, symName: __ZNSt3__16vectorIN6Halide9VarOrRVarENS_9allocatorIS2_EEE9__end_capB8ue170006Ev, symObjAddr: 0xA874, symBinAddr: 0x10000B1B0, symSize: 0x28 }
  - { offsetInCU: 0x4519A, offset: 0x4519A, size: 0x8, addend: 0x0, symName: __ZNKSt3__16vectorIN6Halide9VarOrRVarENS_9allocatorIS2_EEE14__annotate_newB8ue170006Em, symObjAddr: 0xA89C, symBinAddr: 0x10000B1D8, symSize: 0xC8 }
  - { offsetInCU: 0x451DA, offset: 0x451DA, size: 0x8, addend: 0x0, symName: __ZNSt3__116allocator_traitsINS_9allocatorIN6Halide9VarOrRVarEEEE8max_sizeB8ue170006IS4_vEEmRKS4_, symObjAddr: 0xA964, symBinAddr: 0x10000B2A0, symSize: 0x24 }
  - { offsetInCU: 0x45208, offset: 0x45208, size: 0x8, addend: 0x0, symName: __ZNKSt3__16vectorIN6Halide9VarOrRVarENS_9allocatorIS2_EEE7__allocB8ue170006Ev, symObjAddr: 0xA988, symBinAddr: 0x10000B2C4, symSize: 0x28 }
  - { offsetInCU: 0x4522E, offset: 0x4522E, size: 0x8, addend: 0x0, symName: __ZNKSt3__19allocatorIN6Halide9VarOrRVarEE8max_sizeB8ue170006Ev, symObjAddr: 0xA9B0, symBinAddr: 0x10000B2EC, symSize: 0x20 }
  - { offsetInCU: 0x45254, offset: 0x45254, size: 0x8, addend: 0x0, symName: __ZNKSt3__117__compressed_pairIPN6Halide9VarOrRVarENS_9allocatorIS2_EEE6secondB8ue170006Ev, symObjAddr: 0xA9D0, symBinAddr: 0x10000B30C, symSize: 0x24 }
  - { offsetInCU: 0x4527A, offset: 0x4527A, size: 0x8, addend: 0x0, symName: __ZNKSt3__122__compressed_pair_elemINS_9allocatorIN6Halide9VarOrRVarEEELi1ELb1EE5__getB8ue170006Ev, symObjAddr: 0xA9F4, symBinAddr: 0x10000B330, symSize: 0x14 }
  - { offsetInCU: 0x452A0, offset: 0x452A0, size: 0x8, addend: 0x0, symName: __ZNSt3__19allocatorIN6Halide9VarOrRVarEE8allocateB8ue170006Em, symObjAddr: 0xAA08, symBinAddr: 0x10000B344, symSize: 0x5C }
  - { offsetInCU: 0x452D4, offset: 0x452D4, size: 0x8, addend: 0x0, symName: __ZNSt3__117__compressed_pairIPN6Halide9VarOrRVarENS_9allocatorIS2_EEE6secondB8ue170006Ev, symObjAddr: 0xAA64, symBinAddr: 0x10000B3A0, symSize: 0x24 }
  - { offsetInCU: 0x452FA, offset: 0x452FA, size: 0x8, addend: 0x0, symName: __ZNSt3__122__compressed_pair_elemINS_9allocatorIN6Halide9VarOrRVarEEELi1ELb1EE5__getB8ue170006Ev, symObjAddr: 0xAA88, symBinAddr: 0x10000B3C4, symSize: 0x14 }
  - { offsetInCU: 0x45320, offset: 0x45320, size: 0x8, addend: 0x0, symName: __ZNSt3__117__compressed_pairIPN6Halide9VarOrRVarENS_9allocatorIS2_EEE5firstB8ue170006Ev, symObjAddr: 0xAA9C, symBinAddr: 0x10000B3D8, symSize: 0x24 }
  - { offsetInCU: 0x45346, offset: 0x45346, size: 0x8, addend: 0x0, symName: __ZNSt3__122__compressed_pair_elemIPN6Halide9VarOrRVarELi0ELb0EE5__getB8ue170006Ev, symObjAddr: 0xAAC0, symBinAddr: 0x10000B3FC, symSize: 0x14 }
  - { offsetInCU: 0x4536C, offset: 0x4536C, size: 0x8, addend: 0x0, symName: __ZNKSt3__16vectorIN6Halide9VarOrRVarENS_9allocatorIS2_EEE31__annotate_contiguous_containerB8ue170006EPKvS7_S7_S7_, symObjAddr: 0xAAD4, symBinAddr: 0x10000B410, symSize: 0x20 }
  - { offsetInCU: 0x453C2, offset: 0x453C2, size: 0x8, addend: 0x0, symName: __ZNKSt3__16vectorIN6Halide9VarOrRVarENS_9allocatorIS2_EEE4dataB8ue170006Ev, symObjAddr: 0xAAF4, symBinAddr: 0x10000B430, symSize: 0x28 }
  - { offsetInCU: 0x453E8, offset: 0x453E8, size: 0x8, addend: 0x0, symName: __ZNKSt3__16vectorIN6Halide9VarOrRVarENS_9allocatorIS2_EEE8capacityB8ue170006Ev, symObjAddr: 0xAB1C, symBinAddr: 0x10000B458, symSize: 0x40 }
  - { offsetInCU: 0x4540E, offset: 0x4540E, size: 0x8, addend: 0x0, symName: __ZNKSt3__16vectorIN6Halide9VarOrRVarENS_9allocatorIS2_EEE9__end_capB8ue170006Ev, symObjAddr: 0xAB70, symBinAddr: 0x10000B4AC, symSize: 0x28 }
  - { offsetInCU: 0x45434, offset: 0x45434, size: 0x8, addend: 0x0, symName: __ZNKSt3__117__compressed_pairIPN6Halide9VarOrRVarENS_9allocatorIS2_EEE5firstB8ue170006Ev, symObjAddr: 0xAB98, symBinAddr: 0x10000B4D4, symSize: 0x24 }
  - { offsetInCU: 0x4545A, offset: 0x4545A, size: 0x8, addend: 0x0, symName: __ZNKSt3__122__compressed_pair_elemIPN6Halide9VarOrRVarELi0ELb0EE5__getB8ue170006Ev, symObjAddr: 0xABBC, symBinAddr: 0x10000B4F8, symSize: 0x14 }
  - { offsetInCU: 0x4549C, offset: 0x4549C, size: 0x8, addend: 0x0, symName: __ZNSt3__16vectorIN6Halide9VarOrRVarENS_9allocatorIS2_EEE21_ConstructTransactionC1B8ue170006ERS5_m, symObjAddr: 0xABD0, symBinAddr: 0x10000B50C, symSize: 0x3C }
  - { offsetInCU: 0x454E4, offset: 0x454E4, size: 0x8, addend: 0x0, symName: __ZNSt3__16vectorIN6Halide9VarOrRVarENS_9allocatorIS2_EEE21_ConstructTransactionD1B8ue170006Ev, symObjAddr: 0xAC8C, symBinAddr: 0x10000B5C8, symSize: 0x2C }
  - { offsetInCU: 0x4550E, offset: 0x4550E, size: 0x8, addend: 0x0, symName: __ZNSt3__16vectorIN6Halide9VarOrRVarENS_9allocatorIS2_EEE21_ConstructTransactionC2B8ue170006ERS5_m, symObjAddr: 0xACB8, symBinAddr: 0x10000B5F4, symSize: 0x4C }
  - { offsetInCU: 0x45579, offset: 0x45579, size: 0x8, addend: 0x0, symName: __ZNSt3__14pairIPKN6Halide9VarOrRVarES4_EC1B8ue170006IS4_S4_LPv0EEEOT_OT0_, symObjAddr: 0xAF14, symBinAddr: 0x10000B850, symSize: 0x3C }
  - { offsetInCU: 0x455D7, offset: 0x455D7, size: 0x8, addend: 0x0, symName: __ZNSt3__14pairIPKN6Halide9VarOrRVarES4_EC2B8ue170006IS4_S4_LPv0EEEOT_OT0_, symObjAddr: 0xAF50, symBinAddr: 0x10000B88C, symSize: 0x34 }
  - { offsetInCU: 0x45635, offset: 0x45635, size: 0x8, addend: 0x0, symName: __ZNSt3__118__unwrap_iter_implIPKN6Halide9VarOrRVarELb1EE8__unwrapB8ue170006ES4_, symObjAddr: 0xAF84, symBinAddr: 0x10000B8C0, symSize: 0x24 }
  - { offsetInCU: 0x45658, offset: 0x45658, size: 0x8, addend: 0x0, symName: __ZNSt3__129_AllocatorDestroyRangeReverseINS_9allocatorIN6Halide9VarOrRVarEEEPS3_EC1B8ue170006ERS4_RS5_S8_, symObjAddr: 0xB008, symBinAddr: 0x10000B944, symSize: 0x44 }
  - { offsetInCU: 0x456AF, offset: 0x456AF, size: 0x8, addend: 0x0, symName: __ZNSt3__116allocator_traitsINS_9allocatorIN6Halide9VarOrRVarEEEE9constructB8ue170006IS3_JRKS3_EvEEvRS4_PT_DpOT0_, symObjAddr: 0xB04C, symBinAddr: 0x10000B988, symSize: 0x34 }
  - { offsetInCU: 0x45706, offset: 0x45706, size: 0x8, addend: 0x0, symName: __ZNSt3__128__exception_guard_exceptionsINS_29_AllocatorDestroyRangeReverseINS_9allocatorIN6Halide9VarOrRVarEEEPS4_EEE10__completeB8ue170006Ev, symObjAddr: 0xB080, symBinAddr: 0x10000B9BC, symSize: 0x1C }
  - { offsetInCU: 0x4572C, offset: 0x4572C, size: 0x8, addend: 0x0, symName: __ZNSt3__128__exception_guard_exceptionsINS_29_AllocatorDestroyRangeReverseINS_9allocatorIN6Halide9VarOrRVarEEEPS4_EEED1B8ue170006Ev, symObjAddr: 0xB09C, symBinAddr: 0x10000B9D8, symSize: 0x2C }
  - { offsetInCU: 0x45756, offset: 0x45756, size: 0x8, addend: 0x0, symName: __ZNSt3__128__exception_guard_exceptionsINS_29_AllocatorDestroyRangeReverseINS_9allocatorIN6Halide9VarOrRVarEEEPS4_EEEC1B8ue170006ES7_, symObjAddr: 0xB0C8, symBinAddr: 0x10000BA04, symSize: 0x34 }
  - { offsetInCU: 0x4578F, offset: 0x4578F, size: 0x8, addend: 0x0, symName: __ZNSt3__128__exception_guard_exceptionsINS_29_AllocatorDestroyRangeReverseINS_9allocatorIN6Halide9VarOrRVarEEEPS4_EEEC2B8ue170006ES7_, symObjAddr: 0xB0FC, symBinAddr: 0x10000BA38, symSize: 0x30 }
  - { offsetInCU: 0x457C8, offset: 0x457C8, size: 0x8, addend: 0x0, symName: __ZNSt3__129_AllocatorDestroyRangeReverseINS_9allocatorIN6Halide9VarOrRVarEEEPS3_EC2B8ue170006ERS4_RS5_S8_, symObjAddr: 0xB12C, symBinAddr: 0x10000BA68, symSize: 0x38 }
  - { offsetInCU: 0x4581F, offset: 0x4581F, size: 0x8, addend: 0x0, symName: __ZNSt3__19allocatorIN6Halide9VarOrRVarEE9constructB8ue170006IS2_JRKS2_EEEvPT_DpOT0_, symObjAddr: 0xB164, symBinAddr: 0x10000BAA0, symSize: 0x30 }
  - { offsetInCU: 0x45875, offset: 0x45875, size: 0x8, addend: 0x0, symName: __ZNSt3__128__exception_guard_exceptionsINS_29_AllocatorDestroyRangeReverseINS_9allocatorIN6Halide9VarOrRVarEEEPS4_EEED2B8ue170006Ev, symObjAddr: 0xB194, symBinAddr: 0x10000BAD0, symSize: 0x50 }
  - { offsetInCU: 0x4589F, offset: 0x4589F, size: 0x8, addend: 0x0, symName: __ZNKSt3__129_AllocatorDestroyRangeReverseINS_9allocatorIN6Halide9VarOrRVarEEEPS3_EclB8ue170006Ev, symObjAddr: 0xB1E4, symBinAddr: 0x10000BB20, symSize: 0x68 }
  - { offsetInCU: 0x458C5, offset: 0x458C5, size: 0x8, addend: 0x0, symName: __ZNSt3__116reverse_iteratorIPN6Halide9VarOrRVarEEC1B8ue170006ES3_, symObjAddr: 0xB2BC, symBinAddr: 0x10000BBF8, symSize: 0x34 }
  - { offsetInCU: 0x458FD, offset: 0x458FD, size: 0x8, addend: 0x0, symName: __ZNSt3__116allocator_traitsINS_9allocatorIN6Halide9VarOrRVarEEEE7destroyB8ue170006IS3_vEEvRS4_PT_, symObjAddr: 0xB338, symBinAddr: 0x10000BC74, symSize: 0x2C }
  - { offsetInCU: 0x4593A, offset: 0x4593A, size: 0x8, addend: 0x0, symName: __ZNSt3__116reverse_iteratorIPN6Halide9VarOrRVarEEppB8ue170006Ev, symObjAddr: 0xB388, symBinAddr: 0x10000BCC4, symSize: 0x20 }
  - { offsetInCU: 0x45960, offset: 0x45960, size: 0x8, addend: 0x0, symName: __ZNKSt3__116reverse_iteratorIPN6Halide9VarOrRVarEE4baseB8ue170006Ev, symObjAddr: 0xB3A8, symBinAddr: 0x10000BCE4, symSize: 0x18 }
  - { offsetInCU: 0x45986, offset: 0x45986, size: 0x8, addend: 0x0, symName: __ZNSt3__19allocatorIN6Halide9VarOrRVarEE7destroyB8ue170006EPS2_, symObjAddr: 0xB3C0, symBinAddr: 0x10000BCFC, symSize: 0x28 }
  - { offsetInCU: 0x459C0, offset: 0x459C0, size: 0x8, addend: 0x0, symName: __ZNSt3__119__to_address_helperINS_16reverse_iteratorIPN6Halide9VarOrRVarEEEvE6__callB8ue170006ERKS5_, symObjAddr: 0xB3E8, symBinAddr: 0x10000BD24, symSize: 0x38 }
  - { offsetInCU: 0x459E3, offset: 0x459E3, size: 0x8, addend: 0x0, symName: __ZNKSt3__116reverse_iteratorIPN6Halide9VarOrRVarEEptB8ue170006Ev, symObjAddr: 0xB420, symBinAddr: 0x10000BD5C, symSize: 0x24 }
  - { offsetInCU: 0x45A09, offset: 0x45A09, size: 0x8, addend: 0x0, symName: __ZNKSt3__116reverse_iteratorIPN6Halide9VarOrRVarEEdeB8ue170006Ev, symObjAddr: 0xB444, symBinAddr: 0x10000BD80, symSize: 0x28 }
  - { offsetInCU: 0x45A3D, offset: 0x45A3D, size: 0x8, addend: 0x0, symName: __ZNSt3__116reverse_iteratorIPN6Halide9VarOrRVarEEC2B8ue170006ES3_, symObjAddr: 0xB46C, symBinAddr: 0x10000BDA8, symSize: 0x28 }
  - { offsetInCU: 0x45A75, offset: 0x45A75, size: 0x8, addend: 0x0, symName: __ZNSt3__118__unwrap_iter_implIPN6Halide9VarOrRVarELb1EE8__unwrapB8ue170006ES3_, symObjAddr: 0xB494, symBinAddr: 0x10000BDD0, symSize: 0x24 }
  - { offsetInCU: 0x45A98, offset: 0x45A98, size: 0x8, addend: 0x0, symName: __ZNSt3__118__unwrap_iter_implIPN6Halide9VarOrRVarELb1EE8__rewrapB8ue170006ES3_S3_, symObjAddr: 0xB4B8, symBinAddr: 0x10000BDF4, symSize: 0x58 }
  - { offsetInCU: 0x45AC9, offset: 0x45AC9, size: 0x8, addend: 0x0, symName: __ZNSt3__16vectorIN6Halide9VarOrRVarENS_9allocatorIS2_EEE21_ConstructTransactionD2B8ue170006Ev, symObjAddr: 0xB510, symBinAddr: 0x10000BE4C, symSize: 0x20 }
  - { offsetInCU: 0x45AF3, offset: 0x45AF3, size: 0x8, addend: 0x0, symName: __ZNSt3__128__exception_guard_exceptionsINS_6vectorIN6Halide9VarOrRVarENS_9allocatorIS3_EEE16__destroy_vectorEED2B8ue170006Ev, symObjAddr: 0xB530, symBinAddr: 0x10000BE6C, symSize: 0x50 }
  - { offsetInCU: 0x45B1D, offset: 0x45B1D, size: 0x8, addend: 0x0, symName: __ZNSt3__16vectorIN6Halide9VarOrRVarENS_9allocatorIS2_EEE16__destroy_vectorclB8ue170006Ev, symObjAddr: 0xB580, symBinAddr: 0x10000BEBC, symSize: 0x90 }
  - { offsetInCU: 0x45B43, offset: 0x45B43, size: 0x8, addend: 0x0, symName: __ZNSt3__16vectorIN6Halide9VarOrRVarENS_9allocatorIS2_EEE7__clearB8ue170006Ev, symObjAddr: 0xB610, symBinAddr: 0x10000BF4C, symSize: 0x28 }
  - { offsetInCU: 0x45B69, offset: 0x45B69, size: 0x8, addend: 0x0, symName: __ZNKSt3__16vectorIN6Halide9VarOrRVarENS_9allocatorIS2_EEE17__annotate_deleteB8ue170006Ev, symObjAddr: 0xB638, symBinAddr: 0x10000BF74, symSize: 0xD4 }
  - { offsetInCU: 0x45B8F, offset: 0x45B8F, size: 0x8, addend: 0x0, symName: __ZNSt3__116allocator_traitsINS_9allocatorIN6Halide9VarOrRVarEEEE10deallocateB8ue170006ERS4_PS3_m, symObjAddr: 0xB70C, symBinAddr: 0x10000C048, symSize: 0x34 }
  - { offsetInCU: 0x45BD1, offset: 0x45BD1, size: 0x8, addend: 0x0, symName: __ZNSt3__16vectorIN6Halide9VarOrRVarENS_9allocatorIS2_EEE22__base_destruct_at_endB8ue170006EPS2_, symObjAddr: 0xB740, symBinAddr: 0x10000C07C, symSize: 0x8C }
  - { offsetInCU: 0x45C15, offset: 0x45C15, size: 0x8, addend: 0x0, symName: __ZNKSt3__16vectorIN6Halide9VarOrRVarENS_9allocatorIS2_EEE4sizeB8ue170006Ev, symObjAddr: 0xB7CC, symBinAddr: 0x10000C108, symSize: 0x28 }
  - { offsetInCU: 0x45C3B, offset: 0x45C3B, size: 0x8, addend: 0x0, symName: __ZNSt3__19allocatorIN6Halide9VarOrRVarEE10deallocateB8ue170006EPS2_m, symObjAddr: 0xB7F4, symBinAddr: 0x10000C130, symSize: 0x44 }
  - { offsetInCU: 0x45C7D, offset: 0x45C7D, size: 0x8, addend: 0x0, symName: __ZNSt3__16vectorIN6Halide9VarOrRVarENS_9allocatorIS2_EEED2B8ue170006Ev, symObjAddr: 0xB838, symBinAddr: 0x10000C174, symSize: 0x40 }
  - { offsetInCU: 0x45CA7, offset: 0x45CA7, size: 0x8, addend: 0x0, symName: __ZNSt3__16vectorIN6Halide8ArgumentENS_9allocatorIS2_EEEC2B8ue170006ESt16initializer_listIS2_E, symObjAddr: 0xB878, symBinAddr: 0x10000C1B4, symSize: 0x120 }
  - { offsetInCU: 0x45CF7, offset: 0x45CF7, size: 0x8, addend: 0x0, symName: __ZNSt3__117__compressed_pairIPN6Halide8ArgumentENS_9allocatorIS2_EEEC1B8ue170006IDnNS_18__default_init_tagEEEOT_OT0_, symObjAddr: 0xB998, symBinAddr: 0x10000C2D4, symSize: 0x3C }
  - { offsetInCU: 0x45D4F, offset: 0x45D4F, size: 0x8, addend: 0x0, symName: __ZNSt3__16vectorIN6Halide8ArgumentENS_9allocatorIS2_EEE16__destroy_vectorC1B8ue170006ERS5_, symObjAddr: 0xBA14, symBinAddr: 0x10000C350, symSize: 0x34 }
  - { offsetInCU: 0x45D88, offset: 0x45D88, size: 0x8, addend: 0x0, symName: __ZNKSt16initializer_listIN6Halide8ArgumentEE4sizeB8ue170006Ev, symObjAddr: 0xBA48, symBinAddr: 0x10000C384, symSize: 0x18 }
  - { offsetInCU: 0x45DAE, offset: 0x45DAE, size: 0x8, addend: 0x0, symName: __ZNSt3__16vectorIN6Halide8ArgumentENS_9allocatorIS2_EEE11__vallocateB8ue170006Em, symObjAddr: 0xBA60, symBinAddr: 0x10000C39C, symSize: 0xB4 }
  - { offsetInCU: 0x45DF2, offset: 0x45DF2, size: 0x8, addend: 0x0, symName: __ZNSt3__16vectorIN6Halide8ArgumentENS_9allocatorIS2_EEE18__construct_at_endIPKS2_S8_EEvT_T0_m, symObjAddr: 0xBB14, symBinAddr: 0x10000C450, symSize: 0x8C }
  - { offsetInCU: 0x45E68, offset: 0x45E68, size: 0x8, addend: 0x0, symName: __ZNKSt16initializer_listIN6Halide8ArgumentEE5beginB8ue170006Ev, symObjAddr: 0xBBA0, symBinAddr: 0x10000C4DC, symSize: 0x18 }
  - { offsetInCU: 0x45E8E, offset: 0x45E8E, size: 0x8, addend: 0x0, symName: __ZNKSt16initializer_listIN6Halide8ArgumentEE3endB8ue170006Ev, symObjAddr: 0xBBB8, symBinAddr: 0x10000C4F4, symSize: 0x28 }
  - { offsetInCU: 0x45EB4, offset: 0x45EB4, size: 0x8, addend: 0x0, symName: __ZNSt3__128__exception_guard_exceptionsINS_6vectorIN6Halide8ArgumentENS_9allocatorIS3_EEE16__destroy_vectorEE10__completeB8ue170006Ev, symObjAddr: 0xBBE0, symBinAddr: 0x10000C51C, symSize: 0x1C }
  - { offsetInCU: 0x45EDA, offset: 0x45EDA, size: 0x8, addend: 0x0, symName: __ZNSt3__128__exception_guard_exceptionsINS_6vectorIN6Halide8ArgumentENS_9allocatorIS3_EEE16__destroy_vectorEED1B8ue170006Ev, symObjAddr: 0xBBFC, symBinAddr: 0x10000C538, symSize: 0x2C }
  - { offsetInCU: 0x45F04, offset: 0x45F04, size: 0x8, addend: 0x0, symName: __ZNSt3__117__compressed_pairIPN6Halide8ArgumentENS_9allocatorIS2_EEEC2B8ue170006IDnNS_18__default_init_tagEEEOT_OT0_, symObjAddr: 0xBC28, symBinAddr: 0x10000C564, symSize: 0x40 }
  - { offsetInCU: 0x45F5C, offset: 0x45F5C, size: 0x8, addend: 0x0, symName: __ZNSt3__122__compressed_pair_elemIPN6Halide8ArgumentELi0ELb0EEC2B8ue170006IDnvEEOT_, symObjAddr: 0xBC68, symBinAddr: 0x10000C5A4, symSize: 0x1C }
  - { offsetInCU: 0x45F9E, offset: 0x45F9E, size: 0x8, addend: 0x0, symName: __ZNSt3__122__compressed_pair_elemINS_9allocatorIN6Halide8ArgumentEEELi1ELb1EEC2B8ue170006ENS_18__default_init_tagE, symObjAddr: 0xBC84, symBinAddr: 0x10000C5C0, symSize: 0x2C }
  - { offsetInCU: 0x45FD3, offset: 0x45FD3, size: 0x8, addend: 0x0, symName: __ZNSt3__19allocatorIN6Halide8ArgumentEEC2B8ue170006Ev, symObjAddr: 0xBCB0, symBinAddr: 0x10000C5EC, symSize: 0x2C }
  - { offsetInCU: 0x45FFD, offset: 0x45FFD, size: 0x8, addend: 0x0, symName: __ZNSt3__116__non_trivial_ifILb1ENS_9allocatorIN6Halide8ArgumentEEEEC2B8ue170006Ev, symObjAddr: 0xBCDC, symBinAddr: 0x10000C618, symSize: 0x14 }
  - { offsetInCU: 0x46027, offset: 0x46027, size: 0x8, addend: 0x0, symName: __ZNSt3__128__exception_guard_exceptionsINS_6vectorIN6Halide8ArgumentENS_9allocatorIS3_EEE16__destroy_vectorEEC1B8ue170006ES7_, symObjAddr: 0xBCF0, symBinAddr: 0x10000C62C, symSize: 0x34 }
  - { offsetInCU: 0x4605F, offset: 0x4605F, size: 0x8, addend: 0x0, symName: __ZNSt3__128__exception_guard_exceptionsINS_6vectorIN6Halide8ArgumentENS_9allocatorIS3_EEE16__destroy_vectorEEC2B8ue170006ES7_, symObjAddr: 0xBD24, symBinAddr: 0x10000C660, symSize: 0x24 }
  - { offsetInCU: 0x46097, offset: 0x46097, size: 0x8, addend: 0x0, symName: __ZNSt3__16vectorIN6Halide8ArgumentENS_9allocatorIS2_EEE16__destroy_vectorC2B8ue170006ERS5_, symObjAddr: 0xBD48, symBinAddr: 0x10000C684, symSize: 0x20 }
  - { offsetInCU: 0x460D0, offset: 0x460D0, size: 0x8, addend: 0x0, symName: __ZNKSt3__16vectorIN6Halide8ArgumentENS_9allocatorIS2_EEE8max_sizeEv, symObjAddr: 0xBD68, symBinAddr: 0x10000C6A4, symSize: 0x60 }
  - { offsetInCU: 0x460F8, offset: 0x460F8, size: 0x8, addend: 0x0, symName: __ZNKSt3__16vectorIN6Halide8ArgumentENS_9allocatorIS2_EEE20__throw_length_errorB8ue170006Ev, symObjAddr: 0xBDC8, symBinAddr: 0x10000C704, symSize: 0x1C }
  - { offsetInCU: 0x4611E, offset: 0x4611E, size: 0x8, addend: 0x0, symName: __ZNSt3__16vectorIN6Halide8ArgumentENS_9allocatorIS2_EEE7__allocB8ue170006Ev, symObjAddr: 0xBE24, symBinAddr: 0x10000C760, symSize: 0x28 }
  - { offsetInCU: 0x46144, offset: 0x46144, size: 0x8, addend: 0x0, symName: __ZNSt3__16vectorIN6Halide8ArgumentENS_9allocatorIS2_EEE9__end_capB8ue170006Ev, symObjAddr: 0xBE4C, symBinAddr: 0x10000C788, symSize: 0x28 }
  - { offsetInCU: 0x4616A, offset: 0x4616A, size: 0x8, addend: 0x0, symName: __ZNKSt3__16vectorIN6Halide8ArgumentENS_9allocatorIS2_EEE14__annotate_newB8ue170006Em, symObjAddr: 0xBE74, symBinAddr: 0x10000C7B0, symSize: 0xC8 }
  - { offsetInCU: 0x461AA, offset: 0x461AA, size: 0x8, addend: 0x0, symName: __ZNSt3__116allocator_traitsINS_9allocatorIN6Halide8ArgumentEEEE8max_sizeB8ue170006IS4_vEEmRKS4_, symObjAddr: 0xBF3C, symBinAddr: 0x10000C878, symSize: 0x24 }
  - { offsetInCU: 0x461D8, offset: 0x461D8, size: 0x8, addend: 0x0, symName: __ZNKSt3__16vectorIN6Halide8ArgumentENS_9allocatorIS2_EEE7__allocB8ue170006Ev, symObjAddr: 0xBF60, symBinAddr: 0x10000C89C, symSize: 0x28 }
  - { offsetInCU: 0x461FE, offset: 0x461FE, size: 0x8, addend: 0x0, symName: __ZNKSt3__19allocatorIN6Halide8ArgumentEE8max_sizeB8ue170006Ev, symObjAddr: 0xBF88, symBinAddr: 0x10000C8C4, symSize: 0x20 }
  - { offsetInCU: 0x46224, offset: 0x46224, size: 0x8, addend: 0x0, symName: __ZNKSt3__117__compressed_pairIPN6Halide8ArgumentENS_9allocatorIS2_EEE6secondB8ue170006Ev, symObjAddr: 0xBFA8, symBinAddr: 0x10000C8E4, symSize: 0x24 }
  - { offsetInCU: 0x4624A, offset: 0x4624A, size: 0x8, addend: 0x0, symName: __ZNKSt3__122__compressed_pair_elemINS_9allocatorIN6Halide8ArgumentEEELi1ELb1EE5__getB8ue170006Ev, symObjAddr: 0xBFCC, symBinAddr: 0x10000C908, symSize: 0x14 }
  - { offsetInCU: 0x46270, offset: 0x46270, size: 0x8, addend: 0x0, symName: __ZNSt3__19allocatorIN6Halide8ArgumentEE8allocateB8ue170006Em, symObjAddr: 0xBFE0, symBinAddr: 0x10000C91C, symSize: 0x5C }
  - { offsetInCU: 0x462A4, offset: 0x462A4, size: 0x8, addend: 0x0, symName: __ZNSt3__117__compressed_pairIPN6Halide8ArgumentENS_9allocatorIS2_EEE6secondB8ue170006Ev, symObjAddr: 0xC03C, symBinAddr: 0x10000C978, symSize: 0x24 }
  - { offsetInCU: 0x462CA, offset: 0x462CA, size: 0x8, addend: 0x0, symName: __ZNSt3__122__compressed_pair_elemINS_9allocatorIN6Halide8ArgumentEEELi1ELb1EE5__getB8ue170006Ev, symObjAddr: 0xC060, symBinAddr: 0x10000C99C, symSize: 0x14 }
  - { offsetInCU: 0x462F0, offset: 0x462F0, size: 0x8, addend: 0x0, symName: __ZNSt3__117__compressed_pairIPN6Halide8ArgumentENS_9allocatorIS2_EEE5firstB8ue170006Ev, symObjAddr: 0xC074, symBinAddr: 0x10000C9B0, symSize: 0x24 }
  - { offsetInCU: 0x46316, offset: 0x46316, size: 0x8, addend: 0x0, symName: __ZNSt3__122__compressed_pair_elemIPN6Halide8ArgumentELi0ELb0EE5__getB8ue170006Ev, symObjAddr: 0xC098, symBinAddr: 0x10000C9D4, symSize: 0x14 }
  - { offsetInCU: 0x4633C, offset: 0x4633C, size: 0x8, addend: 0x0, symName: __ZNKSt3__16vectorIN6Halide8ArgumentENS_9allocatorIS2_EEE31__annotate_contiguous_containerB8ue170006EPKvS7_S7_S7_, symObjAddr: 0xC0AC, symBinAddr: 0x10000C9E8, symSize: 0x20 }
  - { offsetInCU: 0x46392, offset: 0x46392, size: 0x8, addend: 0x0, symName: __ZNKSt3__16vectorIN6Halide8ArgumentENS_9allocatorIS2_EEE4dataB8ue170006Ev, symObjAddr: 0xC0CC, symBinAddr: 0x10000CA08, symSize: 0x28 }
  - { offsetInCU: 0x463B8, offset: 0x463B8, size: 0x8, addend: 0x0, symName: __ZNKSt3__16vectorIN6Halide8ArgumentENS_9allocatorIS2_EEE8capacityB8ue170006Ev, symObjAddr: 0xC0F4, symBinAddr: 0x10000CA30, symSize: 0x40 }
  - { offsetInCU: 0x463DE, offset: 0x463DE, size: 0x8, addend: 0x0, symName: __ZNKSt3__16vectorIN6Halide8ArgumentENS_9allocatorIS2_EEE9__end_capB8ue170006Ev, symObjAddr: 0xC148, symBinAddr: 0x10000CA84, symSize: 0x28 }
  - { offsetInCU: 0x46404, offset: 0x46404, size: 0x8, addend: 0x0, symName: __ZNKSt3__117__compressed_pairIPN6Halide8ArgumentENS_9allocatorIS2_EEE5firstB8ue170006Ev, symObjAddr: 0xC170, symBinAddr: 0x10000CAAC, symSize: 0x24 }
  - { offsetInCU: 0x4642A, offset: 0x4642A, size: 0x8, addend: 0x0, symName: __ZNKSt3__122__compressed_pair_elemIPN6Halide8ArgumentELi0ELb0EE5__getB8ue170006Ev, symObjAddr: 0xC194, symBinAddr: 0x10000CAD0, symSize: 0x14 }
  - { offsetInCU: 0x4646C, offset: 0x4646C, size: 0x8, addend: 0x0, symName: __ZNSt3__16vectorIN6Halide8ArgumentENS_9allocatorIS2_EEE21_ConstructTransactionC1B8ue170006ERS5_m, symObjAddr: 0xC1A8, symBinAddr: 0x10000CAE4, symSize: 0x3C }
  - { offsetInCU: 0x464B4, offset: 0x464B4, size: 0x8, addend: 0x0, symName: __ZNSt3__16vectorIN6Halide8ArgumentENS_9allocatorIS2_EEE21_ConstructTransactionD1B8ue170006Ev, symObjAddr: 0xC264, symBinAddr: 0x10000CBA0, symSize: 0x2C }
  - { offsetInCU: 0x464DE, offset: 0x464DE, size: 0x8, addend: 0x0, symName: __ZNSt3__16vectorIN6Halide8ArgumentENS_9allocatorIS2_EEE21_ConstructTransactionC2B8ue170006ERS5_m, symObjAddr: 0xC290, symBinAddr: 0x10000CBCC, symSize: 0x4C }
  - { offsetInCU: 0x46549, offset: 0x46549, size: 0x8, addend: 0x0, symName: __ZNSt3__14pairIPKN6Halide8ArgumentES4_EC1B8ue170006IS4_S4_LPv0EEEOT_OT0_, symObjAddr: 0xC4EC, symBinAddr: 0x10000CE28, symSize: 0x3C }
  - { offsetInCU: 0x465A7, offset: 0x465A7, size: 0x8, addend: 0x0, symName: __ZNSt3__14pairIPKN6Halide8ArgumentES4_EC2B8ue170006IS4_S4_LPv0EEEOT_OT0_, symObjAddr: 0xC528, symBinAddr: 0x10000CE64, symSize: 0x34 }
  - { offsetInCU: 0x46605, offset: 0x46605, size: 0x8, addend: 0x0, symName: __ZNSt3__118__unwrap_iter_implIPKN6Halide8ArgumentELb1EE8__unwrapB8ue170006ES4_, symObjAddr: 0xC55C, symBinAddr: 0x10000CE98, symSize: 0x24 }
  - { offsetInCU: 0x46628, offset: 0x46628, size: 0x8, addend: 0x0, symName: __ZNSt3__129_AllocatorDestroyRangeReverseINS_9allocatorIN6Halide8ArgumentEEEPS3_EC1B8ue170006ERS4_RS5_S8_, symObjAddr: 0xC5E0, symBinAddr: 0x10000CF1C, symSize: 0x44 }
  - { offsetInCU: 0x4667F, offset: 0x4667F, size: 0x8, addend: 0x0, symName: __ZNSt3__116allocator_traitsINS_9allocatorIN6Halide8ArgumentEEEE9constructB8ue170006IS3_JRKS3_EvEEvRS4_PT_DpOT0_, symObjAddr: 0xC624, symBinAddr: 0x10000CF60, symSize: 0x34 }
  - { offsetInCU: 0x466D6, offset: 0x466D6, size: 0x8, addend: 0x0, symName: __ZNSt3__128__exception_guard_exceptionsINS_29_AllocatorDestroyRangeReverseINS_9allocatorIN6Halide8ArgumentEEEPS4_EEE10__completeB8ue170006Ev, symObjAddr: 0xC658, symBinAddr: 0x10000CF94, symSize: 0x1C }
  - { offsetInCU: 0x466FC, offset: 0x466FC, size: 0x8, addend: 0x0, symName: __ZNSt3__128__exception_guard_exceptionsINS_29_AllocatorDestroyRangeReverseINS_9allocatorIN6Halide8ArgumentEEEPS4_EEED1B8ue170006Ev, symObjAddr: 0xC674, symBinAddr: 0x10000CFB0, symSize: 0x2C }
  - { offsetInCU: 0x46726, offset: 0x46726, size: 0x8, addend: 0x0, symName: __ZNSt3__128__exception_guard_exceptionsINS_29_AllocatorDestroyRangeReverseINS_9allocatorIN6Halide8ArgumentEEEPS4_EEEC1B8ue170006ES7_, symObjAddr: 0xC6A0, symBinAddr: 0x10000CFDC, symSize: 0x34 }
  - { offsetInCU: 0x4675F, offset: 0x4675F, size: 0x8, addend: 0x0, symName: __ZNSt3__128__exception_guard_exceptionsINS_29_AllocatorDestroyRangeReverseINS_9allocatorIN6Halide8ArgumentEEEPS4_EEEC2B8ue170006ES7_, symObjAddr: 0xC6D4, symBinAddr: 0x10000D010, symSize: 0x30 }
  - { offsetInCU: 0x46798, offset: 0x46798, size: 0x8, addend: 0x0, symName: __ZNSt3__129_AllocatorDestroyRangeReverseINS_9allocatorIN6Halide8ArgumentEEEPS3_EC2B8ue170006ERS4_RS5_S8_, symObjAddr: 0xC704, symBinAddr: 0x10000D040, symSize: 0x38 }
  - { offsetInCU: 0x467EF, offset: 0x467EF, size: 0x8, addend: 0x0, symName: __ZNSt3__19allocatorIN6Halide8ArgumentEE9constructB8ue170006IS2_JRKS2_EEEvPT_DpOT0_, symObjAddr: 0xC73C, symBinAddr: 0x10000D078, symSize: 0x30 }
  - { offsetInCU: 0x46845, offset: 0x46845, size: 0x8, addend: 0x0, symName: __ZN6Halide8ArgumentC1ERKS0_, symObjAddr: 0xC76C, symBinAddr: 0x10000D0A8, symSize: 0x34 }
  - { offsetInCU: 0x4687B, offset: 0x4687B, size: 0x8, addend: 0x0, symName: __ZN6Halide8ArgumentC2ERKS0_, symObjAddr: 0xC7A0, symBinAddr: 0x10000D0DC, symSize: 0x84 }
  - { offsetInCU: 0x468B1, offset: 0x468B1, size: 0x8, addend: 0x0, symName: __ZN6Halide17ArgumentEstimatesC1ERKS0_, symObjAddr: 0xC824, symBinAddr: 0x10000D160, symSize: 0x34 }
  - { offsetInCU: 0x468E7, offset: 0x468E7, size: 0x8, addend: 0x0, symName: __ZN6Halide17ArgumentEstimatesC2ERKS0_, symObjAddr: 0xC858, symBinAddr: 0x10000D194, symSize: 0xD0 }
  - { offsetInCU: 0x4691D, offset: 0x4691D, size: 0x8, addend: 0x0, symName: __ZNSt3__16vectorIN6Halide5RangeENS_9allocatorIS2_EEEC1ERKS5_, symObjAddr: 0xC928, symBinAddr: 0x10000D264, symSize: 0x34 }
  - { offsetInCU: 0x46958, offset: 0x46958, size: 0x8, addend: 0x0, symName: __ZNSt3__16vectorIN6Halide5RangeENS_9allocatorIS2_EEEC2ERKS5_, symObjAddr: 0xC95C, symBinAddr: 0x10000D298, symSize: 0x94 }
  - { offsetInCU: 0x46993, offset: 0x46993, size: 0x8, addend: 0x0, symName: __ZNSt3__116allocator_traitsINS_9allocatorIN6Halide5RangeEEEE37select_on_container_copy_constructionB8ue170006IS4_vvEES4_RKS4_, symObjAddr: 0xC9F0, symBinAddr: 0x10000D32C, symSize: 0x10 }
  - { offsetInCU: 0x469C8, offset: 0x469C8, size: 0x8, addend: 0x0, symName: __ZNSt3__117__compressed_pairIPN6Halide5RangeENS_9allocatorIS2_EEEC1B8ue170006IDnS5_EEOT_OT0_, symObjAddr: 0xCA00, symBinAddr: 0x10000D33C, symSize: 0x3C }
  - { offsetInCU: 0x46A20, offset: 0x46A20, size: 0x8, addend: 0x0, symName: __ZNSt3__16vectorIN6Halide5RangeENS_9allocatorIS2_EEE16__init_with_sizeB8ue170006IPS2_S7_EEvT_T0_m, symObjAddr: 0xCA3C, symBinAddr: 0x10000D378, symSize: 0xB8 }
  - { offsetInCU: 0x46A94, offset: 0x46A94, size: 0x8, addend: 0x0, symName: __ZNSt3__117__compressed_pairIPN6Halide5RangeENS_9allocatorIS2_EEEC2B8ue170006IDnS5_EEOT_OT0_, symObjAddr: 0xCAF4, symBinAddr: 0x10000D430, symSize: 0x44 }
  - { offsetInCU: 0x46AEC, offset: 0x46AEC, size: 0x8, addend: 0x0, symName: __ZNSt3__122__compressed_pair_elemINS_9allocatorIN6Halide5RangeEEELi1ELb1EEC2B8ue170006IS4_vEEOT_, symObjAddr: 0xCB38, symBinAddr: 0x10000D474, symSize: 0x18 }
  - { offsetInCU: 0x46B2E, offset: 0x46B2E, size: 0x8, addend: 0x0, symName: __ZNSt3__16vectorIN6Halide5RangeENS_9allocatorIS2_EEE11__vallocateB8ue170006Em, symObjAddr: 0xCB90, symBinAddr: 0x10000D4CC, symSize: 0xAC }
  - { offsetInCU: 0x46B72, offset: 0x46B72, size: 0x8, addend: 0x0, symName: __ZNSt3__16vectorIN6Halide5RangeENS_9allocatorIS2_EEE18__construct_at_endIPS2_S7_EEvT_T0_m, symObjAddr: 0xCC3C, symBinAddr: 0x10000D578, symSize: 0x8C }
  - { offsetInCU: 0x46BE8, offset: 0x46BE8, size: 0x8, addend: 0x0, symName: __ZNSt3__128__exception_guard_exceptionsINS_6vectorIN6Halide5RangeENS_9allocatorIS3_EEE16__destroy_vectorEE10__completeB8ue170006Ev, symObjAddr: 0xCCC8, symBinAddr: 0x10000D604, symSize: 0x1C }
  - { offsetInCU: 0x46C0E, offset: 0x46C0E, size: 0x8, addend: 0x0, symName: __ZNSt3__128__exception_guard_exceptionsINS_6vectorIN6Halide5RangeENS_9allocatorIS3_EEE16__destroy_vectorEED1B8ue170006Ev, symObjAddr: 0xCCE4, symBinAddr: 0x10000D620, symSize: 0x2C }
  - { offsetInCU: 0x46C38, offset: 0x46C38, size: 0x8, addend: 0x0, symName: __ZNSt3__128__exception_guard_exceptionsINS_6vectorIN6Halide5RangeENS_9allocatorIS3_EEE16__destroy_vectorEEC1B8ue170006ES7_, symObjAddr: 0xCD10, symBinAddr: 0x10000D64C, symSize: 0x34 }
  - { offsetInCU: 0x46C70, offset: 0x46C70, size: 0x8, addend: 0x0, symName: __ZNSt3__128__exception_guard_exceptionsINS_6vectorIN6Halide5RangeENS_9allocatorIS3_EEE16__destroy_vectorEEC2B8ue170006ES7_, symObjAddr: 0xCD44, symBinAddr: 0x10000D680, symSize: 0x24 }
  - { offsetInCU: 0x46CCB, offset: 0x46CCB, size: 0x8, addend: 0x0, symName: __ZNSt3__14pairIPN6Halide5RangeES3_EC1B8ue170006IS3_S3_LPv0EEEOT_OT0_, symObjAddr: 0xCFD4, symBinAddr: 0x10000D910, symSize: 0x3C }
  - { offsetInCU: 0x46D29, offset: 0x46D29, size: 0x8, addend: 0x0, symName: __ZNSt3__14pairIPN6Halide5RangeES3_EC2B8ue170006IS3_S3_LPv0EEEOT_OT0_, symObjAddr: 0xD010, symBinAddr: 0x10000D94C, symSize: 0x34 }
  - { offsetInCU: 0x46D87, offset: 0x46D87, size: 0x8, addend: 0x0, symName: __ZNSt3__129_AllocatorDestroyRangeReverseINS_9allocatorIN6Halide5RangeEEEPS3_EC1B8ue170006ERS4_RS5_S8_, symObjAddr: 0xD090, symBinAddr: 0x10000D9CC, symSize: 0x44 }
  - { offsetInCU: 0x46DDE, offset: 0x46DDE, size: 0x8, addend: 0x0, symName: __ZNSt3__116allocator_traitsINS_9allocatorIN6Halide5RangeEEEE9constructB8ue170006IS3_JRS3_EvEEvRS4_PT_DpOT0_, symObjAddr: 0xD0D4, symBinAddr: 0x10000DA10, symSize: 0x34 }
  - { offsetInCU: 0x46E35, offset: 0x46E35, size: 0x8, addend: 0x0, symName: __ZNSt3__128__exception_guard_exceptionsINS_29_AllocatorDestroyRangeReverseINS_9allocatorIN6Halide5RangeEEEPS4_EEE10__completeB8ue170006Ev, symObjAddr: 0xD108, symBinAddr: 0x10000DA44, symSize: 0x1C }
  - { offsetInCU: 0x46E5B, offset: 0x46E5B, size: 0x8, addend: 0x0, symName: __ZNSt3__128__exception_guard_exceptionsINS_29_AllocatorDestroyRangeReverseINS_9allocatorIN6Halide5RangeEEEPS4_EEED1B8ue170006Ev, symObjAddr: 0xD124, symBinAddr: 0x10000DA60, symSize: 0x2C }
  - { offsetInCU: 0x46E85, offset: 0x46E85, size: 0x8, addend: 0x0, symName: __ZNSt3__128__exception_guard_exceptionsINS_29_AllocatorDestroyRangeReverseINS_9allocatorIN6Halide5RangeEEEPS4_EEEC1B8ue170006ES7_, symObjAddr: 0xD150, symBinAddr: 0x10000DA8C, symSize: 0x34 }
  - { offsetInCU: 0x46EBE, offset: 0x46EBE, size: 0x8, addend: 0x0, symName: __ZNSt3__128__exception_guard_exceptionsINS_29_AllocatorDestroyRangeReverseINS_9allocatorIN6Halide5RangeEEEPS4_EEEC2B8ue170006ES7_, symObjAddr: 0xD184, symBinAddr: 0x10000DAC0, symSize: 0x30 }
  - { offsetInCU: 0x46EF7, offset: 0x46EF7, size: 0x8, addend: 0x0, symName: __ZNSt3__129_AllocatorDestroyRangeReverseINS_9allocatorIN6Halide5RangeEEEPS3_EC2B8ue170006ERS4_RS5_S8_, symObjAddr: 0xD1B4, symBinAddr: 0x10000DAF0, symSize: 0x38 }
  - { offsetInCU: 0x46F4E, offset: 0x46F4E, size: 0x8, addend: 0x0, symName: __ZNSt3__19allocatorIN6Halide5RangeEE9constructB8ue170006IS2_JRS2_EEEvPT_DpOT0_, symObjAddr: 0xD1EC, symBinAddr: 0x10000DB28, symSize: 0x30 }
  - { offsetInCU: 0x46FA4, offset: 0x46FA4, size: 0x8, addend: 0x0, symName: __ZN6Halide5RangeC1ERKS0_, symObjAddr: 0xD21C, symBinAddr: 0x10000DB58, symSize: 0x34 }
  - { offsetInCU: 0x46FDA, offset: 0x46FDA, size: 0x8, addend: 0x0, symName: __ZN6Halide5RangeC2ERKS0_, symObjAddr: 0xD250, symBinAddr: 0x10000DB8C, symSize: 0x48 }
  - { offsetInCU: 0x47010, offset: 0x47010, size: 0x8, addend: 0x0, symName: __ZNSt3__128__exception_guard_exceptionsINS_29_AllocatorDestroyRangeReverseINS_9allocatorIN6Halide5RangeEEEPS4_EEED2B8ue170006Ev, symObjAddr: 0xD298, symBinAddr: 0x10000DBD4, symSize: 0x50 }
  - { offsetInCU: 0x4703A, offset: 0x4703A, size: 0x8, addend: 0x0, symName: __ZNKSt3__129_AllocatorDestroyRangeReverseINS_9allocatorIN6Halide5RangeEEEPS3_EclB8ue170006Ev, symObjAddr: 0xD2E8, symBinAddr: 0x10000DC24, symSize: 0x68 }
  - { offsetInCU: 0x47060, offset: 0x47060, size: 0x8, addend: 0x0, symName: __ZNSt3__118__unwrap_iter_implIPN6Halide5RangeELb1EE8__unwrapB8ue170006ES3_, symObjAddr: 0xD3C0, symBinAddr: 0x10000DCFC, symSize: 0x24 }
  - { offsetInCU: 0x47083, offset: 0x47083, size: 0x8, addend: 0x0, symName: __ZNSt3__118__unwrap_iter_implIPN6Halide5RangeELb1EE8__rewrapB8ue170006ES3_S3_, symObjAddr: 0xD3E4, symBinAddr: 0x10000DD20, symSize: 0x50 }
  - { offsetInCU: 0x470B4, offset: 0x470B4, size: 0x8, addend: 0x0, symName: __ZNSt3__128__exception_guard_exceptionsINS_6vectorIN6Halide5RangeENS_9allocatorIS3_EEE16__destroy_vectorEED2B8ue170006Ev, symObjAddr: 0xD434, symBinAddr: 0x10000DD70, symSize: 0x48 }
  - { offsetInCU: 0x470DE, offset: 0x470DE, size: 0x8, addend: 0x0, symName: __ZNSt3__128__exception_guard_exceptionsINS_29_AllocatorDestroyRangeReverseINS_9allocatorIN6Halide8ArgumentEEEPS4_EEED2B8ue170006Ev, symObjAddr: 0xD47C, symBinAddr: 0x10000DDB8, symSize: 0x50 }
  - { offsetInCU: 0x47108, offset: 0x47108, size: 0x8, addend: 0x0, symName: __ZNKSt3__129_AllocatorDestroyRangeReverseINS_9allocatorIN6Halide8ArgumentEEEPS3_EclB8ue170006Ev, symObjAddr: 0xD4CC, symBinAddr: 0x10000DE08, symSize: 0x68 }
  - { offsetInCU: 0x4712E, offset: 0x4712E, size: 0x8, addend: 0x0, symName: __ZNSt3__116reverse_iteratorIPN6Halide8ArgumentEEC1B8ue170006ES3_, symObjAddr: 0xD5A4, symBinAddr: 0x10000DEE0, symSize: 0x34 }
  - { offsetInCU: 0x47166, offset: 0x47166, size: 0x8, addend: 0x0, symName: __ZNSt3__116allocator_traitsINS_9allocatorIN6Halide8ArgumentEEEE7destroyB8ue170006IS3_vEEvRS4_PT_, symObjAddr: 0xD620, symBinAddr: 0x10000DF5C, symSize: 0x2C }
  - { offsetInCU: 0x471A3, offset: 0x471A3, size: 0x8, addend: 0x0, symName: __ZNSt3__116reverse_iteratorIPN6Halide8ArgumentEEppB8ue170006Ev, symObjAddr: 0xD670, symBinAddr: 0x10000DFAC, symSize: 0x20 }
  - { offsetInCU: 0x471C9, offset: 0x471C9, size: 0x8, addend: 0x0, symName: __ZNKSt3__116reverse_iteratorIPN6Halide8ArgumentEE4baseB8ue170006Ev, symObjAddr: 0xD690, symBinAddr: 0x10000DFCC, symSize: 0x18 }
  - { offsetInCU: 0x471EF, offset: 0x471EF, size: 0x8, addend: 0x0, symName: __ZNSt3__19allocatorIN6Halide8ArgumentEE7destroyB8ue170006EPS2_, symObjAddr: 0xD6A8, symBinAddr: 0x10000DFE4, symSize: 0x28 }
  - { offsetInCU: 0x47229, offset: 0x47229, size: 0x8, addend: 0x0, symName: __ZNSt3__119__to_address_helperINS_16reverse_iteratorIPN6Halide8ArgumentEEEvE6__callB8ue170006ERKS5_, symObjAddr: 0xD6D0, symBinAddr: 0x10000E00C, symSize: 0x38 }
  - { offsetInCU: 0x4724C, offset: 0x4724C, size: 0x8, addend: 0x0, symName: __ZNKSt3__116reverse_iteratorIPN6Halide8ArgumentEEptB8ue170006Ev, symObjAddr: 0xD708, symBinAddr: 0x10000E044, symSize: 0x24 }
  - { offsetInCU: 0x47272, offset: 0x47272, size: 0x8, addend: 0x0, symName: __ZNKSt3__116reverse_iteratorIPN6Halide8ArgumentEEdeB8ue170006Ev, symObjAddr: 0xD72C, symBinAddr: 0x10000E068, symSize: 0x28 }
  - { offsetInCU: 0x472A6, offset: 0x472A6, size: 0x8, addend: 0x0, symName: __ZNSt3__116reverse_iteratorIPN6Halide8ArgumentEEC2B8ue170006ES3_, symObjAddr: 0xD754, symBinAddr: 0x10000E090, symSize: 0x28 }
  - { offsetInCU: 0x472DE, offset: 0x472DE, size: 0x8, addend: 0x0, symName: __ZNSt3__118__unwrap_iter_implIPN6Halide8ArgumentELb1EE8__unwrapB8ue170006ES3_, symObjAddr: 0xD77C, symBinAddr: 0x10000E0B8, symSize: 0x24 }
  - { offsetInCU: 0x47301, offset: 0x47301, size: 0x8, addend: 0x0, symName: __ZNSt3__118__unwrap_iter_implIPN6Halide8ArgumentELb1EE8__rewrapB8ue170006ES3_S3_, symObjAddr: 0xD7A0, symBinAddr: 0x10000E0DC, symSize: 0x58 }
  - { offsetInCU: 0x47332, offset: 0x47332, size: 0x8, addend: 0x0, symName: __ZNSt3__16vectorIN6Halide8ArgumentENS_9allocatorIS2_EEE21_ConstructTransactionD2B8ue170006Ev, symObjAddr: 0xD7F8, symBinAddr: 0x10000E134, symSize: 0x20 }
  - { offsetInCU: 0x4735C, offset: 0x4735C, size: 0x8, addend: 0x0, symName: __ZNSt3__128__exception_guard_exceptionsINS_6vectorIN6Halide8ArgumentENS_9allocatorIS3_EEE16__destroy_vectorEED2B8ue170006Ev, symObjAddr: 0xD818, symBinAddr: 0x10000E154, symSize: 0x50 }
  - { offsetInCU: 0x47386, offset: 0x47386, size: 0x8, addend: 0x0, symName: __ZNSt3__16vectorIN6Halide8ArgumentENS_9allocatorIS2_EEE16__destroy_vectorclB8ue170006Ev, symObjAddr: 0xD868, symBinAddr: 0x10000E1A4, symSize: 0x90 }
  - { offsetInCU: 0x473AC, offset: 0x473AC, size: 0x8, addend: 0x0, symName: __ZNSt3__16vectorIN6Halide8ArgumentENS_9allocatorIS2_EEE7__clearB8ue170006Ev, symObjAddr: 0xD8F8, symBinAddr: 0x10000E234, symSize: 0x28 }
  - { offsetInCU: 0x473D2, offset: 0x473D2, size: 0x8, addend: 0x0, symName: __ZNKSt3__16vectorIN6Halide8ArgumentENS_9allocatorIS2_EEE17__annotate_deleteB8ue170006Ev, symObjAddr: 0xD920, symBinAddr: 0x10000E25C, symSize: 0xD4 }
  - { offsetInCU: 0x473F8, offset: 0x473F8, size: 0x8, addend: 0x0, symName: __ZNSt3__116allocator_traitsINS_9allocatorIN6Halide8ArgumentEEEE10deallocateB8ue170006ERS4_PS3_m, symObjAddr: 0xD9F4, symBinAddr: 0x10000E330, symSize: 0x34 }
  - { offsetInCU: 0x4743A, offset: 0x4743A, size: 0x8, addend: 0x0, symName: __ZNSt3__16vectorIN6Halide8ArgumentENS_9allocatorIS2_EEE22__base_destruct_at_endB8ue170006EPS2_, symObjAddr: 0xDA28, symBinAddr: 0x10000E364, symSize: 0x8C }
  - { offsetInCU: 0x4747E, offset: 0x4747E, size: 0x8, addend: 0x0, symName: __ZNKSt3__16vectorIN6Halide8ArgumentENS_9allocatorIS2_EEE4sizeB8ue170006Ev, symObjAddr: 0xDAB4, symBinAddr: 0x10000E3F0, symSize: 0x28 }
  - { offsetInCU: 0x474A4, offset: 0x474A4, size: 0x8, addend: 0x0, symName: __ZNSt3__19allocatorIN6Halide8ArgumentEE10deallocateB8ue170006EPS2_m, symObjAddr: 0xDADC, symBinAddr: 0x10000E418, symSize: 0x44 }
  - { offsetInCU: 0x474E6, offset: 0x474E6, size: 0x8, addend: 0x0, symName: __ZNSt3__16vectorIN6Halide8ArgumentENS_9allocatorIS2_EEED2B8ue170006Ev, symObjAddr: 0xDB20, symBinAddr: 0x10000E45C, symSize: 0x40 }
...
